
rtarget: formato do arquivo elf64-x86-64


Desmontagem da seção .init:

0000000000400e98 <_init>:
  400e98:	48 83 ec 08          	sub    $0x8,%rsp
  400e9c:	48 8b 05 45 41 20 00 	mov    0x204145(%rip),%rax        # 604fe8 <__gmon_start__>
  400ea3:	48 85 c0             	test   %rax,%rax
  400ea6:	74 05                	je     400ead <_init+0x15>
  400ea8:	e8 63 02 00 00       	callq  401110 <.plt.got>
  400ead:	e8 9e 03 00 00       	callq  401250 <frame_dummy>
  400eb2:	e8 59 28 00 00       	callq  403710 <__do_global_ctors_aux>
  400eb7:	48 83 c4 08          	add    $0x8,%rsp
  400ebb:	c3                   	retq   

Desmontagem da seção .plt:

0000000000400ec0 <.plt>:
  400ec0:	ff 35 42 41 20 00    	pushq  0x204142(%rip)        # 605008 <_GLOBAL_OFFSET_TABLE_+0x8>
  400ec6:	ff 25 44 41 20 00    	jmpq   *0x204144(%rip)        # 605010 <_GLOBAL_OFFSET_TABLE_+0x10>
  400ecc:	0f 1f 40 00          	nopl   0x0(%rax)

0000000000400ed0 <strcasecmp@plt>:
  400ed0:	ff 25 42 41 20 00    	jmpq   *0x204142(%rip)        # 605018 <strcasecmp@GLIBC_2.2.5>
  400ed6:	68 00 00 00 00       	pushq  $0x0
  400edb:	e9 e0 ff ff ff       	jmpq   400ec0 <.plt>

0000000000400ee0 <__errno_location@plt>:
  400ee0:	ff 25 3a 41 20 00    	jmpq   *0x20413a(%rip)        # 605020 <__errno_location@GLIBC_2.2.5>
  400ee6:	68 01 00 00 00       	pushq  $0x1
  400eeb:	e9 d0 ff ff ff       	jmpq   400ec0 <.plt>

0000000000400ef0 <srandom@plt>:
  400ef0:	ff 25 32 41 20 00    	jmpq   *0x204132(%rip)        # 605028 <srandom@GLIBC_2.2.5>
  400ef6:	68 02 00 00 00       	pushq  $0x2
  400efb:	e9 c0 ff ff ff       	jmpq   400ec0 <.plt>

0000000000400f00 <strncmp@plt>:
  400f00:	ff 25 2a 41 20 00    	jmpq   *0x20412a(%rip)        # 605030 <strncmp@GLIBC_2.2.5>
  400f06:	68 03 00 00 00       	pushq  $0x3
  400f0b:	e9 b0 ff ff ff       	jmpq   400ec0 <.plt>

0000000000400f10 <strcpy@plt>:
  400f10:	ff 25 22 41 20 00    	jmpq   *0x204122(%rip)        # 605038 <strcpy@GLIBC_2.2.5>
  400f16:	68 04 00 00 00       	pushq  $0x4
  400f1b:	e9 a0 ff ff ff       	jmpq   400ec0 <.plt>

0000000000400f20 <puts@plt>:
  400f20:	ff 25 1a 41 20 00    	jmpq   *0x20411a(%rip)        # 605040 <puts@GLIBC_2.2.5>
  400f26:	68 05 00 00 00       	pushq  $0x5
  400f2b:	e9 90 ff ff ff       	jmpq   400ec0 <.plt>

0000000000400f30 <write@plt>:
  400f30:	ff 25 12 41 20 00    	jmpq   *0x204112(%rip)        # 605048 <write@GLIBC_2.2.5>
  400f36:	68 06 00 00 00       	pushq  $0x6
  400f3b:	e9 80 ff ff ff       	jmpq   400ec0 <.plt>

0000000000400f40 <__stack_chk_fail@plt>:
  400f40:	ff 25 0a 41 20 00    	jmpq   *0x20410a(%rip)        # 605050 <__stack_chk_fail@GLIBC_2.4>
  400f46:	68 07 00 00 00       	pushq  $0x7
  400f4b:	e9 70 ff ff ff       	jmpq   400ec0 <.plt>

0000000000400f50 <mmap@plt>:
  400f50:	ff 25 02 41 20 00    	jmpq   *0x204102(%rip)        # 605058 <mmap@GLIBC_2.2.5>
  400f56:	68 08 00 00 00       	pushq  $0x8
  400f5b:	e9 60 ff ff ff       	jmpq   400ec0 <.plt>

0000000000400f60 <printf@plt>:
  400f60:	ff 25 fa 40 20 00    	jmpq   *0x2040fa(%rip)        # 605060 <printf@GLIBC_2.2.5>
  400f66:	68 09 00 00 00       	pushq  $0x9
  400f6b:	e9 50 ff ff ff       	jmpq   400ec0 <.plt>

0000000000400f70 <memset@plt>:
  400f70:	ff 25 f2 40 20 00    	jmpq   *0x2040f2(%rip)        # 605068 <memset@GLIBC_2.2.5>
  400f76:	68 0a 00 00 00       	pushq  $0xa
  400f7b:	e9 40 ff ff ff       	jmpq   400ec0 <.plt>

0000000000400f80 <alarm@plt>:
  400f80:	ff 25 ea 40 20 00    	jmpq   *0x2040ea(%rip)        # 605070 <alarm@GLIBC_2.2.5>
  400f86:	68 0b 00 00 00       	pushq  $0xb
  400f8b:	e9 30 ff ff ff       	jmpq   400ec0 <.plt>

0000000000400f90 <close@plt>:
  400f90:	ff 25 e2 40 20 00    	jmpq   *0x2040e2(%rip)        # 605078 <close@GLIBC_2.2.5>
  400f96:	68 0c 00 00 00       	pushq  $0xc
  400f9b:	e9 20 ff ff ff       	jmpq   400ec0 <.plt>

0000000000400fa0 <read@plt>:
  400fa0:	ff 25 da 40 20 00    	jmpq   *0x2040da(%rip)        # 605080 <read@GLIBC_2.2.5>
  400fa6:	68 0d 00 00 00       	pushq  $0xd
  400fab:	e9 10 ff ff ff       	jmpq   400ec0 <.plt>

0000000000400fb0 <__libc_start_main@plt>:
  400fb0:	ff 25 d2 40 20 00    	jmpq   *0x2040d2(%rip)        # 605088 <__libc_start_main@GLIBC_2.2.5>
  400fb6:	68 0e 00 00 00       	pushq  $0xe
  400fbb:	e9 00 ff ff ff       	jmpq   400ec0 <.plt>

0000000000400fc0 <signal@plt>:
  400fc0:	ff 25 ca 40 20 00    	jmpq   *0x2040ca(%rip)        # 605090 <signal@GLIBC_2.2.5>
  400fc6:	68 0f 00 00 00       	pushq  $0xf
  400fcb:	e9 f0 fe ff ff       	jmpq   400ec0 <.plt>

0000000000400fd0 <gethostbyname@plt>:
  400fd0:	ff 25 c2 40 20 00    	jmpq   *0x2040c2(%rip)        # 605098 <gethostbyname@GLIBC_2.2.5>
  400fd6:	68 10 00 00 00       	pushq  $0x10
  400fdb:	e9 e0 fe ff ff       	jmpq   400ec0 <.plt>

0000000000400fe0 <__memmove_chk@plt>:
  400fe0:	ff 25 ba 40 20 00    	jmpq   *0x2040ba(%rip)        # 6050a0 <__memmove_chk@GLIBC_2.3.4>
  400fe6:	68 11 00 00 00       	pushq  $0x11
  400feb:	e9 d0 fe ff ff       	jmpq   400ec0 <.plt>

0000000000400ff0 <fprintf@plt>:
  400ff0:	ff 25 b2 40 20 00    	jmpq   *0x2040b2(%rip)        # 6050a8 <fprintf@GLIBC_2.2.5>
  400ff6:	68 12 00 00 00       	pushq  $0x12
  400ffb:	e9 c0 fe ff ff       	jmpq   400ec0 <.plt>

0000000000401000 <strtol@plt>:
  401000:	ff 25 aa 40 20 00    	jmpq   *0x2040aa(%rip)        # 6050b0 <strtol@GLIBC_2.2.5>
  401006:	68 13 00 00 00       	pushq  $0x13
  40100b:	e9 b0 fe ff ff       	jmpq   400ec0 <.plt>

0000000000401010 <memcpy@plt>:
  401010:	ff 25 a2 40 20 00    	jmpq   *0x2040a2(%rip)        # 6050b8 <memcpy@GLIBC_2.14>
  401016:	68 14 00 00 00       	pushq  $0x14
  40101b:	e9 a0 fe ff ff       	jmpq   400ec0 <.plt>

0000000000401020 <time@plt>:
  401020:	ff 25 9a 40 20 00    	jmpq   *0x20409a(%rip)        # 6050c0 <time@GLIBC_2.2.5>
  401026:	68 15 00 00 00       	pushq  $0x15
  40102b:	e9 90 fe ff ff       	jmpq   400ec0 <.plt>

0000000000401030 <random@plt>:
  401030:	ff 25 92 40 20 00    	jmpq   *0x204092(%rip)        # 6050c8 <random@GLIBC_2.2.5>
  401036:	68 16 00 00 00       	pushq  $0x16
  40103b:	e9 80 fe ff ff       	jmpq   400ec0 <.plt>

0000000000401040 <_IO_getc@plt>:
  401040:	ff 25 8a 40 20 00    	jmpq   *0x20408a(%rip)        # 6050d0 <_IO_getc@GLIBC_2.2.5>
  401046:	68 17 00 00 00       	pushq  $0x17
  40104b:	e9 70 fe ff ff       	jmpq   400ec0 <.plt>

0000000000401050 <__isoc99_sscanf@plt>:
  401050:	ff 25 82 40 20 00    	jmpq   *0x204082(%rip)        # 6050d8 <__isoc99_sscanf@GLIBC_2.7>
  401056:	68 18 00 00 00       	pushq  $0x18
  40105b:	e9 60 fe ff ff       	jmpq   400ec0 <.plt>

0000000000401060 <munmap@plt>:
  401060:	ff 25 7a 40 20 00    	jmpq   *0x20407a(%rip)        # 6050e0 <munmap@GLIBC_2.2.5>
  401066:	68 19 00 00 00       	pushq  $0x19
  40106b:	e9 50 fe ff ff       	jmpq   400ec0 <.plt>

0000000000401070 <__printf_chk@plt>:
  401070:	ff 25 72 40 20 00    	jmpq   *0x204072(%rip)        # 6050e8 <__printf_chk@GLIBC_2.3.4>
  401076:	68 1a 00 00 00       	pushq  $0x1a
  40107b:	e9 40 fe ff ff       	jmpq   400ec0 <.plt>

0000000000401080 <fopen@plt>:
  401080:	ff 25 6a 40 20 00    	jmpq   *0x20406a(%rip)        # 6050f0 <fopen@GLIBC_2.2.5>
  401086:	68 1b 00 00 00       	pushq  $0x1b
  40108b:	e9 30 fe ff ff       	jmpq   400ec0 <.plt>

0000000000401090 <getopt@plt>:
  401090:	ff 25 62 40 20 00    	jmpq   *0x204062(%rip)        # 6050f8 <getopt@GLIBC_2.2.5>
  401096:	68 1c 00 00 00       	pushq  $0x1c
  40109b:	e9 20 fe ff ff       	jmpq   400ec0 <.plt>

00000000004010a0 <strtoul@plt>:
  4010a0:	ff 25 5a 40 20 00    	jmpq   *0x20405a(%rip)        # 605100 <strtoul@GLIBC_2.2.5>
  4010a6:	68 1d 00 00 00       	pushq  $0x1d
  4010ab:	e9 10 fe ff ff       	jmpq   400ec0 <.plt>

00000000004010b0 <gethostname@plt>:
  4010b0:	ff 25 52 40 20 00    	jmpq   *0x204052(%rip)        # 605108 <gethostname@GLIBC_2.2.5>
  4010b6:	68 1e 00 00 00       	pushq  $0x1e
  4010bb:	e9 00 fe ff ff       	jmpq   400ec0 <.plt>

00000000004010c0 <exit@plt>:
  4010c0:	ff 25 4a 40 20 00    	jmpq   *0x20404a(%rip)        # 605110 <exit@GLIBC_2.2.5>
  4010c6:	68 1f 00 00 00       	pushq  $0x1f
  4010cb:	e9 f0 fd ff ff       	jmpq   400ec0 <.plt>

00000000004010d0 <connect@plt>:
  4010d0:	ff 25 42 40 20 00    	jmpq   *0x204042(%rip)        # 605118 <connect@GLIBC_2.2.5>
  4010d6:	68 20 00 00 00       	pushq  $0x20
  4010db:	e9 e0 fd ff ff       	jmpq   400ec0 <.plt>

00000000004010e0 <__fprintf_chk@plt>:
  4010e0:	ff 25 3a 40 20 00    	jmpq   *0x20403a(%rip)        # 605120 <__fprintf_chk@GLIBC_2.3.4>
  4010e6:	68 21 00 00 00       	pushq  $0x21
  4010eb:	e9 d0 fd ff ff       	jmpq   400ec0 <.plt>

00000000004010f0 <__sprintf_chk@plt>:
  4010f0:	ff 25 32 40 20 00    	jmpq   *0x204032(%rip)        # 605128 <__sprintf_chk@GLIBC_2.3.4>
  4010f6:	68 22 00 00 00       	pushq  $0x22
  4010fb:	e9 c0 fd ff ff       	jmpq   400ec0 <.plt>

0000000000401100 <socket@plt>:
  401100:	ff 25 2a 40 20 00    	jmpq   *0x20402a(%rip)        # 605130 <socket@GLIBC_2.2.5>
  401106:	68 23 00 00 00       	pushq  $0x23
  40110b:	e9 b0 fd ff ff       	jmpq   400ec0 <.plt>

Desmontagem da seção .plt.got:

0000000000401110 <.plt.got>:
  401110:	ff 25 d2 3e 20 00    	jmpq   *0x203ed2(%rip)        # 604fe8 <__gmon_start__>
  401116:	66 90                	xchg   %ax,%ax

Desmontagem da seção .text:

0000000000401120 <_start>:
  401120:	31 ed                	xor    %ebp,%ebp
  401122:	49 89 d1             	mov    %rdx,%r9
  401125:	5e                   	pop    %rsi
  401126:	48 89 e2             	mov    %rsp,%rdx
  401129:	48 83 e4 f0          	and    $0xfffffffffffffff0,%rsp
  40112d:	50                   	push   %rax
  40112e:	54                   	push   %rsp
  40112f:	49 c7 c0 00 37 40 00 	mov    $0x403700,%r8
  401136:	48 c7 c1 90 36 40 00 	mov    $0x403690,%rcx
  40113d:	48 c7 c7 50 14 40 00 	mov    $0x401450,%rdi
  401144:	e8 67 fe ff ff       	callq  400fb0 <__libc_start_main@plt>
  401149:	f4                   	hlt    
  40114a:	66 0f 1f 44 00 00    	nopw   0x0(%rax,%rax,1)

0000000000401150 <deregister_tm_clones>:
  401150:	48 8d 3d 59 43 20 00 	lea    0x204359(%rip),%rdi        # 6054b0 <__TMC_END__>
  401157:	48 8d 05 59 43 20 00 	lea    0x204359(%rip),%rax        # 6054b7 <__TMC_END__+0x7>
  40115e:	55                   	push   %rbp
  40115f:	48 29 f8             	sub    %rdi,%rax
  401162:	48 89 e5             	mov    %rsp,%rbp
  401165:	48 83 f8 0e          	cmp    $0xe,%rax
  401169:	76 15                	jbe    401180 <deregister_tm_clones+0x30>
  40116b:	48 8b 05 6e 3e 20 00 	mov    0x203e6e(%rip),%rax        # 604fe0 <_ITM_deregisterTMCloneTable>
  401172:	48 85 c0             	test   %rax,%rax
  401175:	74 09                	je     401180 <deregister_tm_clones+0x30>
  401177:	5d                   	pop    %rbp
  401178:	ff e0                	jmpq   *%rax
  40117a:	66 0f 1f 44 00 00    	nopw   0x0(%rax,%rax,1)
  401180:	5d                   	pop    %rbp
  401181:	c3                   	retq   
  401182:	0f 1f 40 00          	nopl   0x0(%rax)
  401186:	66 2e 0f 1f 84 00 00 	nopw   %cs:0x0(%rax,%rax,1)
  40118d:	00 00 00 

0000000000401190 <register_tm_clones>:
  401190:	48 8d 3d 19 43 20 00 	lea    0x204319(%rip),%rdi        # 6054b0 <__TMC_END__>
  401197:	48 8d 35 12 43 20 00 	lea    0x204312(%rip),%rsi        # 6054b0 <__TMC_END__>
  40119e:	55                   	push   %rbp
  40119f:	48 29 fe             	sub    %rdi,%rsi
  4011a2:	48 89 e5             	mov    %rsp,%rbp
  4011a5:	48 c1 fe 03          	sar    $0x3,%rsi
  4011a9:	48 89 f0             	mov    %rsi,%rax
  4011ac:	48 c1 e8 3f          	shr    $0x3f,%rax
  4011b0:	48 01 c6             	add    %rax,%rsi
  4011b3:	48 d1 fe             	sar    %rsi
  4011b6:	74 18                	je     4011d0 <register_tm_clones+0x40>
  4011b8:	48 8b 05 39 3e 20 00 	mov    0x203e39(%rip),%rax        # 604ff8 <_ITM_registerTMCloneTable>
  4011bf:	48 85 c0             	test   %rax,%rax
  4011c2:	74 0c                	je     4011d0 <register_tm_clones+0x40>
  4011c4:	5d                   	pop    %rbp
  4011c5:	ff e0                	jmpq   *%rax
  4011c7:	66 0f 1f 84 00 00 00 	nopw   0x0(%rax,%rax,1)
  4011ce:	00 00 
  4011d0:	5d                   	pop    %rbp
  4011d1:	c3                   	retq   
  4011d2:	0f 1f 40 00          	nopl   0x0(%rax)
  4011d6:	66 2e 0f 1f 84 00 00 	nopw   %cs:0x0(%rax,%rax,1)
  4011dd:	00 00 00 

00000000004011e0 <__do_global_dtors_aux>:
  4011e0:	80 3d 01 43 20 00 00 	cmpb   $0x0,0x204301(%rip)        # 6054e8 <completed.6943>
  4011e7:	75 62                	jne    40124b <__do_global_dtors_aux+0x6b>
  4011e9:	55                   	push   %rbp
  4011ea:	48 8d 15 47 3c 20 00 	lea    0x203c47(%rip),%rdx        # 604e38 <__DTOR_LIST__>
  4011f1:	48 8b 05 f8 42 20 00 	mov    0x2042f8(%rip),%rax        # 6054f0 <dtor_idx.6945>
  4011f8:	48 89 e5             	mov    %rsp,%rbp
  4011fb:	41 54                	push   %r12
  4011fd:	53                   	push   %rbx
  4011fe:	48 8d 1d 3b 3c 20 00 	lea    0x203c3b(%rip),%rbx        # 604e40 <__DTOR_END__>
  401205:	4c 8d 25 2c 3c 20 00 	lea    0x203c2c(%rip),%r12        # 604e38 <__DTOR_LIST__>
  40120c:	48 29 d3             	sub    %rdx,%rbx
  40120f:	48 c1 fb 03          	sar    $0x3,%rbx
  401213:	48 83 eb 01          	sub    $0x1,%rbx
  401217:	48 39 d8             	cmp    %rbx,%rax
  40121a:	73 1f                	jae    40123b <__do_global_dtors_aux+0x5b>
  40121c:	0f 1f 40 00          	nopl   0x0(%rax)
  401220:	48 83 c0 01          	add    $0x1,%rax
  401224:	48 89 05 c5 42 20 00 	mov    %rax,0x2042c5(%rip)        # 6054f0 <dtor_idx.6945>
  40122b:	41 ff 14 c4          	callq  *(%r12,%rax,8)
  40122f:	48 8b 05 ba 42 20 00 	mov    0x2042ba(%rip),%rax        # 6054f0 <dtor_idx.6945>
  401236:	48 39 d8             	cmp    %rbx,%rax
  401239:	72 e5                	jb     401220 <__do_global_dtors_aux+0x40>
  40123b:	e8 10 ff ff ff       	callq  401150 <deregister_tm_clones>
  401240:	5b                   	pop    %rbx
  401241:	41 5c                	pop    %r12
  401243:	5d                   	pop    %rbp
  401244:	c6 05 9d 42 20 00 01 	movb   $0x1,0x20429d(%rip)        # 6054e8 <completed.6943>
  40124b:	f3 c3                	repz retq 
  40124d:	0f 1f 00             	nopl   (%rax)

0000000000401250 <frame_dummy>:
  401250:	48 8d 3d f1 3b 20 00 	lea    0x203bf1(%rip),%rdi        # 604e48 <__JCR_END__>
  401257:	48 83 3f 00          	cmpq   $0x0,(%rdi)
  40125b:	75 0b                	jne    401268 <frame_dummy+0x18>
  40125d:	e9 2e ff ff ff       	jmpq   401190 <register_tm_clones>
  401262:	66 0f 1f 44 00 00    	nopw   0x0(%rax,%rax,1)
  401268:	48 8b 05 81 3d 20 00 	mov    0x203d81(%rip),%rax        # 604ff0 <_Jv_RegisterClasses>
  40126f:	48 85 c0             	test   %rax,%rax
  401272:	74 e9                	je     40125d <frame_dummy+0xd>
  401274:	55                   	push   %rbp
  401275:	48 89 e5             	mov    %rsp,%rbp
  401278:	ff d0                	callq  *%rax
  40127a:	5d                   	pop    %rbp
  40127b:	e9 10 ff ff ff       	jmpq   401190 <register_tm_clones>

0000000000401280 <usage>:
  401280:	48 83 ec 08          	sub    $0x8,%rsp
  401284:	48 89 fe             	mov    %rdi,%rsi
  401287:	83 3d 9a 42 20 00 00 	cmpl   $0x0,0x20429a(%rip)        # 605528 <is_checker>
  40128e:	74 39                	je     4012c9 <usage+0x49>
  401290:	bf 68 37 40 00       	mov    $0x403768,%edi
  401295:	b8 00 00 00 00       	mov    $0x0,%eax
  40129a:	e8 c1 fc ff ff       	callq  400f60 <printf@plt>
  40129f:	bf a0 37 40 00       	mov    $0x4037a0,%edi
  4012a4:	e8 77 fc ff ff       	callq  400f20 <puts@plt>
  4012a9:	bf 18 39 40 00       	mov    $0x403918,%edi
  4012ae:	e8 6d fc ff ff       	callq  400f20 <puts@plt>
  4012b3:	bf c8 37 40 00       	mov    $0x4037c8,%edi
  4012b8:	e8 63 fc ff ff       	callq  400f20 <puts@plt>
  4012bd:	bf 32 39 40 00       	mov    $0x403932,%edi
  4012c2:	e8 59 fc ff ff       	callq  400f20 <puts@plt>
  4012c7:	eb 2d                	jmp    4012f6 <usage+0x76>
  4012c9:	bf 4e 39 40 00       	mov    $0x40394e,%edi
  4012ce:	b8 00 00 00 00       	mov    $0x0,%eax
  4012d3:	e8 88 fc ff ff       	callq  400f60 <printf@plt>
  4012d8:	bf f0 37 40 00       	mov    $0x4037f0,%edi
  4012dd:	e8 3e fc ff ff       	callq  400f20 <puts@plt>
  4012e2:	bf 18 38 40 00       	mov    $0x403818,%edi
  4012e7:	e8 34 fc ff ff       	callq  400f20 <puts@plt>
  4012ec:	bf 6c 39 40 00       	mov    $0x40396c,%edi
  4012f1:	e8 2a fc ff ff       	callq  400f20 <puts@plt>
  4012f6:	bf 00 00 00 00       	mov    $0x0,%edi
  4012fb:	e8 c0 fd ff ff       	callq  4010c0 <exit@plt>

0000000000401300 <initialize_target>:
  401300:	55                   	push   %rbp
  401301:	53                   	push   %rbx
  401302:	48 81 ec 08 21 00 00 	sub    $0x2108,%rsp
  401309:	89 f5                	mov    %esi,%ebp
  40130b:	89 3d 07 42 20 00    	mov    %edi,0x204207(%rip)        # 605518 <check_level>
  401311:	8b 3d 51 3e 20 00    	mov    0x203e51(%rip),%edi        # 605168 <target_id>
  401317:	e8 4b 23 00 00       	callq  403667 <gencookie>
  40131c:	89 05 02 42 20 00    	mov    %eax,0x204202(%rip)        # 605524 <cookie>
  401322:	89 c7                	mov    %eax,%edi
  401324:	e8 3e 23 00 00       	callq  403667 <gencookie>
  401329:	89 05 f1 41 20 00    	mov    %eax,0x2041f1(%rip)        # 605520 <authkey>
  40132f:	8b 05 33 3e 20 00    	mov    0x203e33(%rip),%eax        # 605168 <target_id>
  401335:	8d 78 01             	lea    0x1(%rax),%edi
  401338:	e8 b3 fb ff ff       	callq  400ef0 <srandom@plt>
  40133d:	e8 ee fc ff ff       	callq  401030 <random@plt>
  401342:	89 c7                	mov    %eax,%edi
  401344:	e8 ca 02 00 00       	callq  401613 <scramble>
  401349:	89 c3                	mov    %eax,%ebx
  40134b:	85 ed                	test   %ebp,%ebp
  40134d:	74 18                	je     401367 <initialize_target+0x67>
  40134f:	bf 00 00 00 00       	mov    $0x0,%edi
  401354:	e8 c7 fc ff ff       	callq  401020 <time@plt>
  401359:	89 c7                	mov    %eax,%edi
  40135b:	e8 90 fb ff ff       	callq  400ef0 <srandom@plt>
  401360:	e8 cb fc ff ff       	callq  401030 <random@plt>
  401365:	eb 05                	jmp    40136c <initialize_target+0x6c>
  401367:	b8 00 00 00 00       	mov    $0x0,%eax
  40136c:	01 c3                	add    %eax,%ebx
  40136e:	0f b7 db             	movzwl %bx,%ebx
  401371:	8d 04 dd 00 01 00 00 	lea    0x100(,%rbx,8),%eax
  401378:	89 c0                	mov    %eax,%eax
  40137a:	48 89 05 1f 41 20 00 	mov    %rax,0x20411f(%rip)        # 6054a0 <buf_offset>
  401381:	c6 05 c0 4d 20 00 72 	movb   $0x72,0x204dc0(%rip)        # 606148 <target_prefix>
  401388:	83 3d 19 41 20 00 00 	cmpl   $0x0,0x204119(%rip)        # 6054a8 <notify>
  40138f:	0f 84 b1 00 00 00    	je     401446 <initialize_target+0x146>
  401395:	83 3d 8c 41 20 00 00 	cmpl   $0x0,0x20418c(%rip)        # 605528 <is_checker>
  40139c:	0f 85 a4 00 00 00    	jne    401446 <initialize_target+0x146>
  4013a2:	be 00 01 00 00       	mov    $0x100,%esi
  4013a7:	48 89 e7             	mov    %rsp,%rdi
  4013aa:	e8 01 fd ff ff       	callq  4010b0 <gethostname@plt>
  4013af:	85 c0                	test   %eax,%eax
  4013b1:	74 25                	je     4013d8 <initialize_target+0xd8>
  4013b3:	bf 48 38 40 00       	mov    $0x403848,%edi
  4013b8:	e8 63 fb ff ff       	callq  400f20 <puts@plt>
  4013bd:	bf 08 00 00 00       	mov    $0x8,%edi
  4013c2:	e8 f9 fc ff ff       	callq  4010c0 <exit@plt>
  4013c7:	48 89 e6             	mov    %rsp,%rsi
  4013ca:	e8 01 fb ff ff       	callq  400ed0 <strcasecmp@plt>
  4013cf:	85 c0                	test   %eax,%eax
  4013d1:	74 21                	je     4013f4 <initialize_target+0xf4>
  4013d3:	83 c3 01             	add    $0x1,%ebx
  4013d6:	eb 05                	jmp    4013dd <initialize_target+0xdd>
  4013d8:	bb 00 00 00 00       	mov    $0x0,%ebx
  4013dd:	48 63 c3             	movslq %ebx,%rax
  4013e0:	48 8b 3c c5 80 51 60 	mov    0x605180(,%rax,8),%rdi
  4013e7:	00 
  4013e8:	48 85 ff             	test   %rdi,%rdi
  4013eb:	75 da                	jne    4013c7 <initialize_target+0xc7>
  4013ed:	b8 00 00 00 00       	mov    $0x0,%eax
  4013f2:	eb 05                	jmp    4013f9 <initialize_target+0xf9>
  4013f4:	b8 01 00 00 00       	mov    $0x1,%eax
  4013f9:	85 c0                	test   %eax,%eax
  4013fb:	75 17                	jne    401414 <initialize_target+0x114>
  4013fd:	48 89 e6             	mov    %rsp,%rsi
  401400:	bf 80 38 40 00       	mov    $0x403880,%edi
  401405:	e8 56 fb ff ff       	callq  400f60 <printf@plt>
  40140a:	bf 08 00 00 00       	mov    $0x8,%edi
  40140f:	e8 ac fc ff ff       	callq  4010c0 <exit@plt>
  401414:	48 8d bc 24 00 01 00 	lea    0x100(%rsp),%rdi
  40141b:	00 
  40141c:	e8 98 1f 00 00       	callq  4033b9 <init_driver>
  401421:	85 c0                	test   %eax,%eax
  401423:	79 21                	jns    401446 <initialize_target+0x146>
  401425:	48 8d b4 24 00 01 00 	lea    0x100(%rsp),%rsi
  40142c:	00 
  40142d:	bf c0 38 40 00       	mov    $0x4038c0,%edi
  401432:	b8 00 00 00 00       	mov    $0x0,%eax
  401437:	e8 24 fb ff ff       	callq  400f60 <printf@plt>
  40143c:	bf 08 00 00 00       	mov    $0x8,%edi
  401441:	e8 7a fc ff ff       	callq  4010c0 <exit@plt>
  401446:	48 81 c4 08 21 00 00 	add    $0x2108,%rsp
  40144d:	5b                   	pop    %rbx
  40144e:	5d                   	pop    %rbp
  40144f:	c3                   	retq   

0000000000401450 <main>:
  401450:	41 56                	push   %r14
  401452:	41 55                	push   %r13
  401454:	41 54                	push   %r12
  401456:	55                   	push   %rbp
  401457:	53                   	push   %rbx
  401458:	41 89 fc             	mov    %edi,%r12d
  40145b:	48 89 f3             	mov    %rsi,%rbx
  40145e:	be 99 26 40 00       	mov    $0x402699,%esi
  401463:	bf 0b 00 00 00       	mov    $0xb,%edi
  401468:	e8 53 fb ff ff       	callq  400fc0 <signal@plt>
  40146d:	be 45 26 40 00       	mov    $0x402645,%esi
  401472:	bf 07 00 00 00       	mov    $0x7,%edi
  401477:	e8 44 fb ff ff       	callq  400fc0 <signal@plt>
  40147c:	be ed 26 40 00       	mov    $0x4026ed,%esi
  401481:	bf 04 00 00 00       	mov    $0x4,%edi
  401486:	e8 35 fb ff ff       	callq  400fc0 <signal@plt>
  40148b:	83 3d 96 40 20 00 00 	cmpl   $0x0,0x204096(%rip)        # 605528 <is_checker>
  401492:	74 20                	je     4014b4 <main+0x64>
  401494:	be 41 27 40 00       	mov    $0x402741,%esi
  401499:	bf 0e 00 00 00       	mov    $0xe,%edi
  40149e:	e8 1d fb ff ff       	callq  400fc0 <signal@plt>
  4014a3:	bf 05 00 00 00       	mov    $0x5,%edi
  4014a8:	e8 d3 fa ff ff       	callq  400f80 <alarm@plt>
  4014ad:	bd 8a 39 40 00       	mov    $0x40398a,%ebp
  4014b2:	eb 05                	jmp    4014b9 <main+0x69>
  4014b4:	bd 85 39 40 00       	mov    $0x403985,%ebp
  4014b9:	48 8b 05 00 40 20 00 	mov    0x204000(%rip),%rax        # 6054c0 <stdin@@GLIBC_2.2.5>
  4014c0:	48 89 05 49 40 20 00 	mov    %rax,0x204049(%rip)        # 605510 <infile>
  4014c7:	41 bd 00 00 00 00    	mov    $0x0,%r13d
  4014cd:	41 be 00 00 00 00    	mov    $0x0,%r14d
  4014d3:	e9 b9 00 00 00       	jmpq   401591 <main+0x141>
  4014d8:	83 e8 61             	sub    $0x61,%eax
  4014db:	3c 10                	cmp    $0x10,%al
  4014dd:	0f 87 93 00 00 00    	ja     401576 <main+0x126>
  4014e3:	0f b6 c0             	movzbl %al,%eax
  4014e6:	ff 24 c5 d0 39 40 00 	jmpq   *0x4039d0(,%rax,8)
  4014ed:	48 8b 3b             	mov    (%rbx),%rdi
  4014f0:	e8 8b fd ff ff       	callq  401280 <usage>
  4014f5:	be 4d 3c 40 00       	mov    $0x403c4d,%esi
  4014fa:	48 8b 3d c7 3f 20 00 	mov    0x203fc7(%rip),%rdi        # 6054c8 <optarg@@GLIBC_2.2.5>
  401501:	e8 7a fb ff ff       	callq  401080 <fopen@plt>
  401506:	48 89 05 03 40 20 00 	mov    %rax,0x204003(%rip)        # 605510 <infile>
  40150d:	48 85 c0             	test   %rax,%rax
  401510:	75 7f                	jne    401591 <main+0x141>
  401512:	48 8b 15 af 3f 20 00 	mov    0x203faf(%rip),%rdx        # 6054c8 <optarg@@GLIBC_2.2.5>
  401519:	be 92 39 40 00       	mov    $0x403992,%esi
  40151e:	48 8b 3d bb 3f 20 00 	mov    0x203fbb(%rip),%rdi        # 6054e0 <stderr@@GLIBC_2.2.5>
  401525:	e8 c6 fa ff ff       	callq  400ff0 <fprintf@plt>
  40152a:	b8 01 00 00 00       	mov    $0x1,%eax
  40152f:	e9 d6 00 00 00       	jmpq   40160a <main+0x1ba>
  401534:	ba 10 00 00 00       	mov    $0x10,%edx
  401539:	be 00 00 00 00       	mov    $0x0,%esi
  40153e:	48 8b 3d 83 3f 20 00 	mov    0x203f83(%rip),%rdi        # 6054c8 <optarg@@GLIBC_2.2.5>
  401545:	e8 56 fb ff ff       	callq  4010a0 <strtoul@plt>
  40154a:	41 89 c6             	mov    %eax,%r14d
  40154d:	eb 42                	jmp    401591 <main+0x141>
  40154f:	ba 0a 00 00 00       	mov    $0xa,%edx
  401554:	be 00 00 00 00       	mov    $0x0,%esi
  401559:	48 8b 3d 68 3f 20 00 	mov    0x203f68(%rip),%rdi        # 6054c8 <optarg@@GLIBC_2.2.5>
  401560:	e8 9b fa ff ff       	callq  401000 <strtol@plt>
  401565:	41 89 c5             	mov    %eax,%r13d
  401568:	eb 27                	jmp    401591 <main+0x141>
  40156a:	c7 05 34 3f 20 00 00 	movl   $0x0,0x203f34(%rip)        # 6054a8 <notify>
  401571:	00 00 00 
  401574:	eb 1b                	jmp    401591 <main+0x141>
  401576:	40 0f be f6          	movsbl %sil,%esi
  40157a:	bf af 39 40 00       	mov    $0x4039af,%edi
  40157f:	b8 00 00 00 00       	mov    $0x0,%eax
  401584:	e8 d7 f9 ff ff       	callq  400f60 <printf@plt>
  401589:	48 8b 3b             	mov    (%rbx),%rdi
  40158c:	e8 ef fc ff ff       	callq  401280 <usage>
  401591:	48 89 ea             	mov    %rbp,%rdx
  401594:	48 89 de             	mov    %rbx,%rsi
  401597:	44 89 e7             	mov    %r12d,%edi
  40159a:	e8 f1 fa ff ff       	callq  401090 <getopt@plt>
  40159f:	89 c6                	mov    %eax,%esi
  4015a1:	3c ff                	cmp    $0xff,%al
  4015a3:	0f 85 2f ff ff ff    	jne    4014d8 <main+0x88>
  4015a9:	be 01 00 00 00       	mov    $0x1,%esi
  4015ae:	44 89 ef             	mov    %r13d,%edi
  4015b1:	e8 4a fd ff ff       	callq  401300 <initialize_target>
  4015b6:	83 3d 6b 3f 20 00 00 	cmpl   $0x0,0x203f6b(%rip)        # 605528 <is_checker>
  4015bd:	74 25                	je     4015e4 <main+0x194>
  4015bf:	44 3b 35 5a 3f 20 00 	cmp    0x203f5a(%rip),%r14d        # 605520 <authkey>
  4015c6:	74 1c                	je     4015e4 <main+0x194>
  4015c8:	44 89 f6             	mov    %r14d,%esi
  4015cb:	bf e8 38 40 00       	mov    $0x4038e8,%edi
  4015d0:	b8 00 00 00 00       	mov    $0x0,%eax
  4015d5:	e8 86 f9 ff ff       	callq  400f60 <printf@plt>
  4015da:	b8 00 00 00 00       	mov    $0x0,%eax
  4015df:	e8 c1 0c 00 00       	callq  4022a5 <check_fail>
  4015e4:	8b 35 3a 3f 20 00    	mov    0x203f3a(%rip),%esi        # 605524 <cookie>
  4015ea:	bf c2 39 40 00       	mov    $0x4039c2,%edi
  4015ef:	b8 00 00 00 00       	mov    $0x0,%eax
  4015f4:	e8 67 f9 ff ff       	callq  400f60 <printf@plt>
  4015f9:	48 8b 3d a0 3e 20 00 	mov    0x203ea0(%rip),%rdi        # 6054a0 <buf_offset>
  401600:	e8 93 11 00 00       	callq  402798 <launch>
  401605:	b8 00 00 00 00       	mov    $0x0,%eax
  40160a:	5b                   	pop    %rbx
  40160b:	5d                   	pop    %rbp
  40160c:	41 5c                	pop    %r12
  40160e:	41 5d                	pop    %r13
  401610:	41 5e                	pop    %r14
  401612:	c3                   	retq   

0000000000401613 <scramble>:
  401613:	b8 00 00 00 00       	mov    $0x0,%eax
  401618:	eb 11                	jmp    40162b <scramble+0x18>
  40161a:	69 d0 ba 94 00 00    	imul   $0x94ba,%eax,%edx
  401620:	01 fa                	add    %edi,%edx
  401622:	89 c1                	mov    %eax,%ecx
  401624:	89 54 8c d0          	mov    %edx,-0x30(%rsp,%rcx,4)
  401628:	83 c0 01             	add    $0x1,%eax
  40162b:	83 f8 09             	cmp    $0x9,%eax
  40162e:	76 ea                	jbe    40161a <scramble+0x7>
  401630:	8b 44 24 d4          	mov    -0x2c(%rsp),%eax
  401634:	69 c0 d6 36 00 00    	imul   $0x36d6,%eax,%eax
  40163a:	89 44 24 d4          	mov    %eax,-0x2c(%rsp)
  40163e:	8b 44 24 f4          	mov    -0xc(%rsp),%eax
  401642:	69 c0 d4 9c 00 00    	imul   $0x9cd4,%eax,%eax
  401648:	89 44 24 f4          	mov    %eax,-0xc(%rsp)
  40164c:	8b 44 24 d0          	mov    -0x30(%rsp),%eax
  401650:	69 c0 3b a4 00 00    	imul   $0xa43b,%eax,%eax
  401656:	89 44 24 d0          	mov    %eax,-0x30(%rsp)
  40165a:	8b 44 24 e8          	mov    -0x18(%rsp),%eax
  40165e:	69 c0 20 bb 00 00    	imul   $0xbb20,%eax,%eax
  401664:	89 44 24 e8          	mov    %eax,-0x18(%rsp)
  401668:	8b 44 24 e0          	mov    -0x20(%rsp),%eax
  40166c:	69 c0 7e b4 00 00    	imul   $0xb47e,%eax,%eax
  401672:	89 44 24 e0          	mov    %eax,-0x20(%rsp)
  401676:	8b 44 24 d0          	mov    -0x30(%rsp),%eax
  40167a:	69 c0 29 29 00 00    	imul   $0x2929,%eax,%eax
  401680:	89 44 24 d0          	mov    %eax,-0x30(%rsp)
  401684:	8b 44 24 e0          	mov    -0x20(%rsp),%eax
  401688:	69 c0 46 07 00 00    	imul   $0x746,%eax,%eax
  40168e:	89 44 24 e0          	mov    %eax,-0x20(%rsp)
  401692:	8b 44 24 dc          	mov    -0x24(%rsp),%eax
  401696:	69 c0 01 58 00 00    	imul   $0x5801,%eax,%eax
  40169c:	89 44 24 dc          	mov    %eax,-0x24(%rsp)
  4016a0:	8b 44 24 e0          	mov    -0x20(%rsp),%eax
  4016a4:	69 c0 d4 f0 00 00    	imul   $0xf0d4,%eax,%eax
  4016aa:	89 44 24 e0          	mov    %eax,-0x20(%rsp)
  4016ae:	8b 44 24 f4          	mov    -0xc(%rsp),%eax
  4016b2:	69 c0 af 2d 00 00    	imul   $0x2daf,%eax,%eax
  4016b8:	89 44 24 f4          	mov    %eax,-0xc(%rsp)
  4016bc:	8b 44 24 dc          	mov    -0x24(%rsp),%eax
  4016c0:	69 c0 d9 b9 00 00    	imul   $0xb9d9,%eax,%eax
  4016c6:	89 44 24 dc          	mov    %eax,-0x24(%rsp)
  4016ca:	8b 44 24 f0          	mov    -0x10(%rsp),%eax
  4016ce:	69 c0 06 36 00 00    	imul   $0x3606,%eax,%eax
  4016d4:	89 44 24 f0          	mov    %eax,-0x10(%rsp)
  4016d8:	8b 44 24 f4          	mov    -0xc(%rsp),%eax
  4016dc:	69 c0 88 2a 00 00    	imul   $0x2a88,%eax,%eax
  4016e2:	89 44 24 f4          	mov    %eax,-0xc(%rsp)
  4016e6:	8b 44 24 e8          	mov    -0x18(%rsp),%eax
  4016ea:	69 c0 74 11 00 00    	imul   $0x1174,%eax,%eax
  4016f0:	89 44 24 e8          	mov    %eax,-0x18(%rsp)
  4016f4:	8b 44 24 e8          	mov    -0x18(%rsp),%eax
  4016f8:	69 c0 af 45 00 00    	imul   $0x45af,%eax,%eax
  4016fe:	89 44 24 e8          	mov    %eax,-0x18(%rsp)
  401702:	8b 44 24 ec          	mov    -0x14(%rsp),%eax
  401706:	69 c0 d3 98 00 00    	imul   $0x98d3,%eax,%eax
  40170c:	89 44 24 ec          	mov    %eax,-0x14(%rsp)
  401710:	8b 44 24 dc          	mov    -0x24(%rsp),%eax
  401714:	69 c0 e3 d6 00 00    	imul   $0xd6e3,%eax,%eax
  40171a:	89 44 24 dc          	mov    %eax,-0x24(%rsp)
  40171e:	8b 44 24 f4          	mov    -0xc(%rsp),%eax
  401722:	69 c0 48 33 00 00    	imul   $0x3348,%eax,%eax
  401728:	89 44 24 f4          	mov    %eax,-0xc(%rsp)
  40172c:	8b 44 24 d4          	mov    -0x2c(%rsp),%eax
  401730:	69 c0 0f eb 00 00    	imul   $0xeb0f,%eax,%eax
  401736:	89 44 24 d4          	mov    %eax,-0x2c(%rsp)
  40173a:	8b 44 24 d8          	mov    -0x28(%rsp),%eax
  40173e:	69 c0 01 35 00 00    	imul   $0x3501,%eax,%eax
  401744:	89 44 24 d8          	mov    %eax,-0x28(%rsp)
  401748:	8b 44 24 f0          	mov    -0x10(%rsp),%eax
  40174c:	69 c0 27 98 00 00    	imul   $0x9827,%eax,%eax
  401752:	89 44 24 f0          	mov    %eax,-0x10(%rsp)
  401756:	8b 44 24 f4          	mov    -0xc(%rsp),%eax
  40175a:	69 c0 e6 88 00 00    	imul   $0x88e6,%eax,%eax
  401760:	89 44 24 f4          	mov    %eax,-0xc(%rsp)
  401764:	8b 44 24 e8          	mov    -0x18(%rsp),%eax
  401768:	69 c0 02 05 00 00    	imul   $0x502,%eax,%eax
  40176e:	89 44 24 e8          	mov    %eax,-0x18(%rsp)
  401772:	8b 44 24 dc          	mov    -0x24(%rsp),%eax
  401776:	69 c0 07 80 00 00    	imul   $0x8007,%eax,%eax
  40177c:	89 44 24 dc          	mov    %eax,-0x24(%rsp)
  401780:	8b 44 24 e8          	mov    -0x18(%rsp),%eax
  401784:	69 c0 98 ff 00 00    	imul   $0xff98,%eax,%eax
  40178a:	89 44 24 e8          	mov    %eax,-0x18(%rsp)
  40178e:	8b 44 24 e0          	mov    -0x20(%rsp),%eax
  401792:	69 c0 1c aa 00 00    	imul   $0xaa1c,%eax,%eax
  401798:	89 44 24 e0          	mov    %eax,-0x20(%rsp)
  40179c:	8b 44 24 ec          	mov    -0x14(%rsp),%eax
  4017a0:	69 c0 89 a6 00 00    	imul   $0xa689,%eax,%eax
  4017a6:	89 44 24 ec          	mov    %eax,-0x14(%rsp)
  4017aa:	8b 44 24 e8          	mov    -0x18(%rsp),%eax
  4017ae:	69 c0 a0 ed 00 00    	imul   $0xeda0,%eax,%eax
  4017b4:	89 44 24 e8          	mov    %eax,-0x18(%rsp)
  4017b8:	8b 44 24 d4          	mov    -0x2c(%rsp),%eax
  4017bc:	69 c0 68 9e 00 00    	imul   $0x9e68,%eax,%eax
  4017c2:	89 44 24 d4          	mov    %eax,-0x2c(%rsp)
  4017c6:	8b 44 24 e4          	mov    -0x1c(%rsp),%eax
  4017ca:	69 c0 2a d5 00 00    	imul   $0xd52a,%eax,%eax
  4017d0:	89 44 24 e4          	mov    %eax,-0x1c(%rsp)
  4017d4:	8b 44 24 dc          	mov    -0x24(%rsp),%eax
  4017d8:	69 c0 67 32 00 00    	imul   $0x3267,%eax,%eax
  4017de:	89 44 24 dc          	mov    %eax,-0x24(%rsp)
  4017e2:	8b 44 24 f0          	mov    -0x10(%rsp),%eax
  4017e6:	69 c0 9c 60 00 00    	imul   $0x609c,%eax,%eax
  4017ec:	89 44 24 f0          	mov    %eax,-0x10(%rsp)
  4017f0:	8b 44 24 d4          	mov    -0x2c(%rsp),%eax
  4017f4:	69 c0 a5 a3 00 00    	imul   $0xa3a5,%eax,%eax
  4017fa:	89 44 24 d4          	mov    %eax,-0x2c(%rsp)
  4017fe:	8b 44 24 e0          	mov    -0x20(%rsp),%eax
  401802:	69 c0 69 84 00 00    	imul   $0x8469,%eax,%eax
  401808:	89 44 24 e0          	mov    %eax,-0x20(%rsp)
  40180c:	8b 44 24 e4          	mov    -0x1c(%rsp),%eax
  401810:	69 c0 4e 82 00 00    	imul   $0x824e,%eax,%eax
  401816:	89 44 24 e4          	mov    %eax,-0x1c(%rsp)
  40181a:	8b 44 24 f4          	mov    -0xc(%rsp),%eax
  40181e:	69 c0 42 2e 00 00    	imul   $0x2e42,%eax,%eax
  401824:	89 44 24 f4          	mov    %eax,-0xc(%rsp)
  401828:	8b 44 24 dc          	mov    -0x24(%rsp),%eax
  40182c:	69 c0 95 17 00 00    	imul   $0x1795,%eax,%eax
  401832:	89 44 24 dc          	mov    %eax,-0x24(%rsp)
  401836:	8b 44 24 d0          	mov    -0x30(%rsp),%eax
  40183a:	69 c0 e2 b9 00 00    	imul   $0xb9e2,%eax,%eax
  401840:	89 44 24 d0          	mov    %eax,-0x30(%rsp)
  401844:	8b 44 24 dc          	mov    -0x24(%rsp),%eax
  401848:	69 c0 11 98 00 00    	imul   $0x9811,%eax,%eax
  40184e:	89 44 24 dc          	mov    %eax,-0x24(%rsp)
  401852:	8b 44 24 dc          	mov    -0x24(%rsp),%eax
  401856:	69 c0 6f 12 00 00    	imul   $0x126f,%eax,%eax
  40185c:	89 44 24 dc          	mov    %eax,-0x24(%rsp)
  401860:	8b 44 24 f4          	mov    -0xc(%rsp),%eax
  401864:	69 c0 9f e7 00 00    	imul   $0xe79f,%eax,%eax
  40186a:	89 44 24 f4          	mov    %eax,-0xc(%rsp)
  40186e:	8b 44 24 f4          	mov    -0xc(%rsp),%eax
  401872:	69 c0 1b 51 00 00    	imul   $0x511b,%eax,%eax
  401878:	89 44 24 f4          	mov    %eax,-0xc(%rsp)
  40187c:	8b 44 24 e8          	mov    -0x18(%rsp),%eax
  401880:	69 c0 ae 9c 00 00    	imul   $0x9cae,%eax,%eax
  401886:	89 44 24 e8          	mov    %eax,-0x18(%rsp)
  40188a:	8b 44 24 ec          	mov    -0x14(%rsp),%eax
  40188e:	69 c0 3b 5f 00 00    	imul   $0x5f3b,%eax,%eax
  401894:	89 44 24 ec          	mov    %eax,-0x14(%rsp)
  401898:	8b 44 24 d4          	mov    -0x2c(%rsp),%eax
  40189c:	69 c0 d1 3d 00 00    	imul   $0x3dd1,%eax,%eax
  4018a2:	89 44 24 d4          	mov    %eax,-0x2c(%rsp)
  4018a6:	8b 44 24 f0          	mov    -0x10(%rsp),%eax
  4018aa:	69 c0 2e 1f 00 00    	imul   $0x1f2e,%eax,%eax
  4018b0:	89 44 24 f0          	mov    %eax,-0x10(%rsp)
  4018b4:	8b 44 24 ec          	mov    -0x14(%rsp),%eax
  4018b8:	69 c0 63 a2 00 00    	imul   $0xa263,%eax,%eax
  4018be:	89 44 24 ec          	mov    %eax,-0x14(%rsp)
  4018c2:	8b 44 24 e8          	mov    -0x18(%rsp),%eax
  4018c6:	69 c0 82 79 00 00    	imul   $0x7982,%eax,%eax
  4018cc:	89 44 24 e8          	mov    %eax,-0x18(%rsp)
  4018d0:	8b 44 24 e0          	mov    -0x20(%rsp),%eax
  4018d4:	69 c0 b0 13 00 00    	imul   $0x13b0,%eax,%eax
  4018da:	89 44 24 e0          	mov    %eax,-0x20(%rsp)
  4018de:	8b 44 24 d8          	mov    -0x28(%rsp),%eax
  4018e2:	69 c0 bc d4 00 00    	imul   $0xd4bc,%eax,%eax
  4018e8:	89 44 24 d8          	mov    %eax,-0x28(%rsp)
  4018ec:	8b 44 24 d4          	mov    -0x2c(%rsp),%eax
  4018f0:	69 c0 57 b7 00 00    	imul   $0xb757,%eax,%eax
  4018f6:	89 44 24 d4          	mov    %eax,-0x2c(%rsp)
  4018fa:	8b 44 24 e8          	mov    -0x18(%rsp),%eax
  4018fe:	69 c0 73 b0 00 00    	imul   $0xb073,%eax,%eax
  401904:	89 44 24 e8          	mov    %eax,-0x18(%rsp)
  401908:	8b 44 24 f4          	mov    -0xc(%rsp),%eax
  40190c:	69 c0 28 ba 00 00    	imul   $0xba28,%eax,%eax
  401912:	89 44 24 f4          	mov    %eax,-0xc(%rsp)
  401916:	8b 44 24 e4          	mov    -0x1c(%rsp),%eax
  40191a:	69 c0 84 eb 00 00    	imul   $0xeb84,%eax,%eax
  401920:	89 44 24 e4          	mov    %eax,-0x1c(%rsp)
  401924:	8b 44 24 d4          	mov    -0x2c(%rsp),%eax
  401928:	69 c0 3f a4 00 00    	imul   $0xa43f,%eax,%eax
  40192e:	89 44 24 d4          	mov    %eax,-0x2c(%rsp)
  401932:	8b 44 24 e8          	mov    -0x18(%rsp),%eax
  401936:	69 c0 e2 e9 00 00    	imul   $0xe9e2,%eax,%eax
  40193c:	89 44 24 e8          	mov    %eax,-0x18(%rsp)
  401940:	8b 44 24 d8          	mov    -0x28(%rsp),%eax
  401944:	69 c0 7f ba 00 00    	imul   $0xba7f,%eax,%eax
  40194a:	89 44 24 d8          	mov    %eax,-0x28(%rsp)
  40194e:	8b 44 24 d4          	mov    -0x2c(%rsp),%eax
  401952:	69 c0 07 1a 00 00    	imul   $0x1a07,%eax,%eax
  401958:	89 44 24 d4          	mov    %eax,-0x2c(%rsp)
  40195c:	8b 44 24 e0          	mov    -0x20(%rsp),%eax
  401960:	69 c0 ba 79 00 00    	imul   $0x79ba,%eax,%eax
  401966:	89 44 24 e0          	mov    %eax,-0x20(%rsp)
  40196a:	8b 44 24 ec          	mov    -0x14(%rsp),%eax
  40196e:	69 c0 44 92 00 00    	imul   $0x9244,%eax,%eax
  401974:	89 44 24 ec          	mov    %eax,-0x14(%rsp)
  401978:	8b 44 24 dc          	mov    -0x24(%rsp),%eax
  40197c:	69 c0 a8 ad 00 00    	imul   $0xada8,%eax,%eax
  401982:	89 44 24 dc          	mov    %eax,-0x24(%rsp)
  401986:	8b 44 24 dc          	mov    -0x24(%rsp),%eax
  40198a:	69 c0 c3 27 00 00    	imul   $0x27c3,%eax,%eax
  401990:	89 44 24 dc          	mov    %eax,-0x24(%rsp)
  401994:	8b 44 24 dc          	mov    -0x24(%rsp),%eax
  401998:	69 c0 3e 31 00 00    	imul   $0x313e,%eax,%eax
  40199e:	89 44 24 dc          	mov    %eax,-0x24(%rsp)
  4019a2:	8b 44 24 d0          	mov    -0x30(%rsp),%eax
  4019a6:	69 c0 13 96 00 00    	imul   $0x9613,%eax,%eax
  4019ac:	89 44 24 d0          	mov    %eax,-0x30(%rsp)
  4019b0:	8b 44 24 d4          	mov    -0x2c(%rsp),%eax
  4019b4:	69 c0 31 9f 00 00    	imul   $0x9f31,%eax,%eax
  4019ba:	89 44 24 d4          	mov    %eax,-0x2c(%rsp)
  4019be:	8b 44 24 f0          	mov    -0x10(%rsp),%eax
  4019c2:	69 c0 ec da 00 00    	imul   $0xdaec,%eax,%eax
  4019c8:	89 44 24 f0          	mov    %eax,-0x10(%rsp)
  4019cc:	8b 44 24 e4          	mov    -0x1c(%rsp),%eax
  4019d0:	69 c0 ce 6d 00 00    	imul   $0x6dce,%eax,%eax
  4019d6:	89 44 24 e4          	mov    %eax,-0x1c(%rsp)
  4019da:	8b 44 24 f0          	mov    -0x10(%rsp),%eax
  4019de:	69 c0 75 25 00 00    	imul   $0x2575,%eax,%eax
  4019e4:	89 44 24 f0          	mov    %eax,-0x10(%rsp)
  4019e8:	8b 44 24 dc          	mov    -0x24(%rsp),%eax
  4019ec:	69 c0 b4 f5 00 00    	imul   $0xf5b4,%eax,%eax
  4019f2:	89 44 24 dc          	mov    %eax,-0x24(%rsp)
  4019f6:	8b 44 24 d4          	mov    -0x2c(%rsp),%eax
  4019fa:	69 c0 2f 7a 00 00    	imul   $0x7a2f,%eax,%eax
  401a00:	89 44 24 d4          	mov    %eax,-0x2c(%rsp)
  401a04:	8b 44 24 e8          	mov    -0x18(%rsp),%eax
  401a08:	69 c0 ed 0e 00 00    	imul   $0xeed,%eax,%eax
  401a0e:	89 44 24 e8          	mov    %eax,-0x18(%rsp)
  401a12:	8b 44 24 d8          	mov    -0x28(%rsp),%eax
  401a16:	69 c0 d2 25 00 00    	imul   $0x25d2,%eax,%eax
  401a1c:	89 44 24 d8          	mov    %eax,-0x28(%rsp)
  401a20:	8b 44 24 e4          	mov    -0x1c(%rsp),%eax
  401a24:	69 c0 10 9f 00 00    	imul   $0x9f10,%eax,%eax
  401a2a:	89 44 24 e4          	mov    %eax,-0x1c(%rsp)
  401a2e:	8b 44 24 d0          	mov    -0x30(%rsp),%eax
  401a32:	69 c0 99 20 00 00    	imul   $0x2099,%eax,%eax
  401a38:	89 44 24 d0          	mov    %eax,-0x30(%rsp)
  401a3c:	8b 44 24 e0          	mov    -0x20(%rsp),%eax
  401a40:	69 c0 1c b9 00 00    	imul   $0xb91c,%eax,%eax
  401a46:	89 44 24 e0          	mov    %eax,-0x20(%rsp)
  401a4a:	8b 44 24 f0          	mov    -0x10(%rsp),%eax
  401a4e:	69 c0 55 d0 00 00    	imul   $0xd055,%eax,%eax
  401a54:	89 44 24 f0          	mov    %eax,-0x10(%rsp)
  401a58:	8b 44 24 e0          	mov    -0x20(%rsp),%eax
  401a5c:	69 c0 51 64 00 00    	imul   $0x6451,%eax,%eax
  401a62:	89 44 24 e0          	mov    %eax,-0x20(%rsp)
  401a66:	8b 44 24 d4          	mov    -0x2c(%rsp),%eax
  401a6a:	69 c0 cf b6 00 00    	imul   $0xb6cf,%eax,%eax
  401a70:	89 44 24 d4          	mov    %eax,-0x2c(%rsp)
  401a74:	8b 44 24 e0          	mov    -0x20(%rsp),%eax
  401a78:	69 c0 5d 99 00 00    	imul   $0x995d,%eax,%eax
  401a7e:	89 44 24 e0          	mov    %eax,-0x20(%rsp)
  401a82:	8b 44 24 ec          	mov    -0x14(%rsp),%eax
  401a86:	69 c0 7d da 00 00    	imul   $0xda7d,%eax,%eax
  401a8c:	89 44 24 ec          	mov    %eax,-0x14(%rsp)
  401a90:	8b 44 24 ec          	mov    -0x14(%rsp),%eax
  401a94:	69 c0 b1 b7 00 00    	imul   $0xb7b1,%eax,%eax
  401a9a:	89 44 24 ec          	mov    %eax,-0x14(%rsp)
  401a9e:	8b 44 24 d0          	mov    -0x30(%rsp),%eax
  401aa2:	69 c0 17 8f 00 00    	imul   $0x8f17,%eax,%eax
  401aa8:	89 44 24 d0          	mov    %eax,-0x30(%rsp)
  401aac:	8b 44 24 d8          	mov    -0x28(%rsp),%eax
  401ab0:	69 c0 c8 40 00 00    	imul   $0x40c8,%eax,%eax
  401ab6:	89 44 24 d8          	mov    %eax,-0x28(%rsp)
  401aba:	8b 44 24 f0          	mov    -0x10(%rsp),%eax
  401abe:	69 c0 76 4d 00 00    	imul   $0x4d76,%eax,%eax
  401ac4:	89 44 24 f0          	mov    %eax,-0x10(%rsp)
  401ac8:	8b 44 24 e8          	mov    -0x18(%rsp),%eax
  401acc:	69 c0 86 c5 00 00    	imul   $0xc586,%eax,%eax
  401ad2:	89 44 24 e8          	mov    %eax,-0x18(%rsp)
  401ad6:	8b 44 24 dc          	mov    -0x24(%rsp),%eax
  401ada:	69 c0 70 d0 00 00    	imul   $0xd070,%eax,%eax
  401ae0:	89 44 24 dc          	mov    %eax,-0x24(%rsp)
  401ae4:	8b 44 24 d8          	mov    -0x28(%rsp),%eax
  401ae8:	69 c0 b8 2b 00 00    	imul   $0x2bb8,%eax,%eax
  401aee:	89 44 24 d8          	mov    %eax,-0x28(%rsp)
  401af2:	8b 44 24 e0          	mov    -0x20(%rsp),%eax
  401af6:	69 c0 df 9d 00 00    	imul   $0x9ddf,%eax,%eax
  401afc:	89 44 24 e0          	mov    %eax,-0x20(%rsp)
  401b00:	8b 44 24 d0          	mov    -0x30(%rsp),%eax
  401b04:	69 c0 1b 36 00 00    	imul   $0x361b,%eax,%eax
  401b0a:	89 44 24 d0          	mov    %eax,-0x30(%rsp)
  401b0e:	8b 44 24 d4          	mov    -0x2c(%rsp),%eax
  401b12:	69 c0 92 e3 00 00    	imul   $0xe392,%eax,%eax
  401b18:	89 44 24 d4          	mov    %eax,-0x2c(%rsp)
  401b1c:	8b 44 24 dc          	mov    -0x24(%rsp),%eax
  401b20:	69 c0 56 71 00 00    	imul   $0x7156,%eax,%eax
  401b26:	89 44 24 dc          	mov    %eax,-0x24(%rsp)
  401b2a:	8b 44 24 ec          	mov    -0x14(%rsp),%eax
  401b2e:	69 c0 fb 55 00 00    	imul   $0x55fb,%eax,%eax
  401b34:	89 44 24 ec          	mov    %eax,-0x14(%rsp)
  401b38:	8b 44 24 e0          	mov    -0x20(%rsp),%eax
  401b3c:	69 c0 ff ab 00 00    	imul   $0xabff,%eax,%eax
  401b42:	89 44 24 e0          	mov    %eax,-0x20(%rsp)
  401b46:	8b 44 24 f0          	mov    -0x10(%rsp),%eax
  401b4a:	69 c0 36 6b 00 00    	imul   $0x6b36,%eax,%eax
  401b50:	89 44 24 f0          	mov    %eax,-0x10(%rsp)
  401b54:	8b 44 24 dc          	mov    -0x24(%rsp),%eax
  401b58:	69 c0 ac 59 00 00    	imul   $0x59ac,%eax,%eax
  401b5e:	89 44 24 dc          	mov    %eax,-0x24(%rsp)
  401b62:	8b 44 24 e8          	mov    -0x18(%rsp),%eax
  401b66:	69 c0 eb 7d 00 00    	imul   $0x7deb,%eax,%eax
  401b6c:	89 44 24 e8          	mov    %eax,-0x18(%rsp)
  401b70:	8b 44 24 dc          	mov    -0x24(%rsp),%eax
  401b74:	69 c0 1c fb 00 00    	imul   $0xfb1c,%eax,%eax
  401b7a:	89 44 24 dc          	mov    %eax,-0x24(%rsp)
  401b7e:	8b 44 24 d8          	mov    -0x28(%rsp),%eax
  401b82:	69 c0 de 36 00 00    	imul   $0x36de,%eax,%eax
  401b88:	89 44 24 d8          	mov    %eax,-0x28(%rsp)
  401b8c:	8b 44 24 f0          	mov    -0x10(%rsp),%eax
  401b90:	69 c0 8f c1 00 00    	imul   $0xc18f,%eax,%eax
  401b96:	89 44 24 f0          	mov    %eax,-0x10(%rsp)
  401b9a:	8b 44 24 dc          	mov    -0x24(%rsp),%eax
  401b9e:	69 c0 61 72 00 00    	imul   $0x7261,%eax,%eax
  401ba4:	89 44 24 dc          	mov    %eax,-0x24(%rsp)
  401ba8:	8b 44 24 e4          	mov    -0x1c(%rsp),%eax
  401bac:	69 c0 fa 4b 00 00    	imul   $0x4bfa,%eax,%eax
  401bb2:	89 44 24 e4          	mov    %eax,-0x1c(%rsp)
  401bb6:	8b 44 24 d0          	mov    -0x30(%rsp),%eax
  401bba:	69 c0 88 5b 00 00    	imul   $0x5b88,%eax,%eax
  401bc0:	89 44 24 d0          	mov    %eax,-0x30(%rsp)
  401bc4:	8b 44 24 e4          	mov    -0x1c(%rsp),%eax
  401bc8:	69 c0 13 39 00 00    	imul   $0x3913,%eax,%eax
  401bce:	89 44 24 e4          	mov    %eax,-0x1c(%rsp)
  401bd2:	8b 44 24 e8          	mov    -0x18(%rsp),%eax
  401bd6:	69 c0 7a 42 00 00    	imul   $0x427a,%eax,%eax
  401bdc:	89 44 24 e8          	mov    %eax,-0x18(%rsp)
  401be0:	8b 44 24 d0          	mov    -0x30(%rsp),%eax
  401be4:	69 c0 e0 b7 00 00    	imul   $0xb7e0,%eax,%eax
  401bea:	89 44 24 d0          	mov    %eax,-0x30(%rsp)
  401bee:	8b 44 24 e0          	mov    -0x20(%rsp),%eax
  401bf2:	69 c0 66 5e 00 00    	imul   $0x5e66,%eax,%eax
  401bf8:	89 44 24 e0          	mov    %eax,-0x20(%rsp)
  401bfc:	8b 44 24 d4          	mov    -0x2c(%rsp),%eax
  401c00:	69 c0 f3 d9 00 00    	imul   $0xd9f3,%eax,%eax
  401c06:	89 44 24 d4          	mov    %eax,-0x2c(%rsp)
  401c0a:	8b 44 24 e0          	mov    -0x20(%rsp),%eax
  401c0e:	69 c0 de fe 00 00    	imul   $0xfede,%eax,%eax
  401c14:	89 44 24 e0          	mov    %eax,-0x20(%rsp)
  401c18:	8b 44 24 d8          	mov    -0x28(%rsp),%eax
  401c1c:	69 c0 2c c1 00 00    	imul   $0xc12c,%eax,%eax
  401c22:	89 44 24 d8          	mov    %eax,-0x28(%rsp)
  401c26:	8b 44 24 e0          	mov    -0x20(%rsp),%eax
  401c2a:	69 c0 4f cb 00 00    	imul   $0xcb4f,%eax,%eax
  401c30:	89 44 24 e0          	mov    %eax,-0x20(%rsp)
  401c34:	8b 44 24 d0          	mov    -0x30(%rsp),%eax
  401c38:	69 c0 c8 af 00 00    	imul   $0xafc8,%eax,%eax
  401c3e:	89 44 24 d0          	mov    %eax,-0x30(%rsp)
  401c42:	8b 44 24 e8          	mov    -0x18(%rsp),%eax
  401c46:	69 c0 36 2c 00 00    	imul   $0x2c36,%eax,%eax
  401c4c:	89 44 24 e8          	mov    %eax,-0x18(%rsp)
  401c50:	8b 44 24 f0          	mov    -0x10(%rsp),%eax
  401c54:	69 c0 3d 56 00 00    	imul   $0x563d,%eax,%eax
  401c5a:	89 44 24 f0          	mov    %eax,-0x10(%rsp)
  401c5e:	8b 44 24 f4          	mov    -0xc(%rsp),%eax
  401c62:	69 c0 c9 e6 00 00    	imul   $0xe6c9,%eax,%eax
  401c68:	89 44 24 f4          	mov    %eax,-0xc(%rsp)
  401c6c:	8b 44 24 e0          	mov    -0x20(%rsp),%eax
  401c70:	69 c0 69 e7 00 00    	imul   $0xe769,%eax,%eax
  401c76:	89 44 24 e0          	mov    %eax,-0x20(%rsp)
  401c7a:	8b 44 24 e4          	mov    -0x1c(%rsp),%eax
  401c7e:	69 c0 e2 9e 00 00    	imul   $0x9ee2,%eax,%eax
  401c84:	89 44 24 e4          	mov    %eax,-0x1c(%rsp)
  401c88:	8b 44 24 dc          	mov    -0x24(%rsp),%eax
  401c8c:	69 c0 fb 9b 00 00    	imul   $0x9bfb,%eax,%eax
  401c92:	89 44 24 dc          	mov    %eax,-0x24(%rsp)
  401c96:	8b 44 24 d0          	mov    -0x30(%rsp),%eax
  401c9a:	69 c0 16 ab 00 00    	imul   $0xab16,%eax,%eax
  401ca0:	89 44 24 d0          	mov    %eax,-0x30(%rsp)
  401ca4:	8b 44 24 d8          	mov    -0x28(%rsp),%eax
  401ca8:	69 c0 d2 f3 00 00    	imul   $0xf3d2,%eax,%eax
  401cae:	89 44 24 d8          	mov    %eax,-0x28(%rsp)
  401cb2:	8b 44 24 e8          	mov    -0x18(%rsp),%eax
  401cb6:	69 c0 3c 44 00 00    	imul   $0x443c,%eax,%eax
  401cbc:	89 44 24 e8          	mov    %eax,-0x18(%rsp)
  401cc0:	8b 44 24 f0          	mov    -0x10(%rsp),%eax
  401cc4:	69 c0 9d 13 00 00    	imul   $0x139d,%eax,%eax
  401cca:	89 44 24 f0          	mov    %eax,-0x10(%rsp)
  401cce:	8b 44 24 d0          	mov    -0x30(%rsp),%eax
  401cd2:	69 c0 e9 d4 00 00    	imul   $0xd4e9,%eax,%eax
  401cd8:	89 44 24 d0          	mov    %eax,-0x30(%rsp)
  401cdc:	8b 44 24 ec          	mov    -0x14(%rsp),%eax
  401ce0:	69 c0 04 57 00 00    	imul   $0x5704,%eax,%eax
  401ce6:	89 44 24 ec          	mov    %eax,-0x14(%rsp)
  401cea:	8b 44 24 e8          	mov    -0x18(%rsp),%eax
  401cee:	69 c0 83 73 00 00    	imul   $0x7383,%eax,%eax
  401cf4:	89 44 24 e8          	mov    %eax,-0x18(%rsp)
  401cf8:	8b 44 24 d0          	mov    -0x30(%rsp),%eax
  401cfc:	69 c0 db 3d 00 00    	imul   $0x3ddb,%eax,%eax
  401d02:	89 44 24 d0          	mov    %eax,-0x30(%rsp)
  401d06:	8b 44 24 ec          	mov    -0x14(%rsp),%eax
  401d0a:	69 c0 08 33 00 00    	imul   $0x3308,%eax,%eax
  401d10:	89 44 24 ec          	mov    %eax,-0x14(%rsp)
  401d14:	8b 44 24 e4          	mov    -0x1c(%rsp),%eax
  401d18:	69 c0 0c 88 00 00    	imul   $0x880c,%eax,%eax
  401d1e:	89 44 24 e4          	mov    %eax,-0x1c(%rsp)
  401d22:	8b 44 24 e0          	mov    -0x20(%rsp),%eax
  401d26:	69 c0 88 98 00 00    	imul   $0x9888,%eax,%eax
  401d2c:	89 44 24 e0          	mov    %eax,-0x20(%rsp)
  401d30:	8b 44 24 f4          	mov    -0xc(%rsp),%eax
  401d34:	69 c0 53 c2 00 00    	imul   $0xc253,%eax,%eax
  401d3a:	89 44 24 f4          	mov    %eax,-0xc(%rsp)
  401d3e:	8b 44 24 e0          	mov    -0x20(%rsp),%eax
  401d42:	69 c0 17 f6 00 00    	imul   $0xf617,%eax,%eax
  401d48:	89 44 24 e0          	mov    %eax,-0x20(%rsp)
  401d4c:	8b 44 24 d4          	mov    -0x2c(%rsp),%eax
  401d50:	69 c0 7b d8 00 00    	imul   $0xd87b,%eax,%eax
  401d56:	89 44 24 d4          	mov    %eax,-0x2c(%rsp)
  401d5a:	8b 44 24 e8          	mov    -0x18(%rsp),%eax
  401d5e:	69 c0 20 dd 00 00    	imul   $0xdd20,%eax,%eax
  401d64:	89 44 24 e8          	mov    %eax,-0x18(%rsp)
  401d68:	8b 44 24 e8          	mov    -0x18(%rsp),%eax
  401d6c:	69 c0 64 8f 00 00    	imul   $0x8f64,%eax,%eax
  401d72:	89 44 24 e8          	mov    %eax,-0x18(%rsp)
  401d76:	8b 44 24 e4          	mov    -0x1c(%rsp),%eax
  401d7a:	69 c0 84 49 00 00    	imul   $0x4984,%eax,%eax
  401d80:	89 44 24 e4          	mov    %eax,-0x1c(%rsp)
  401d84:	8b 44 24 e0          	mov    -0x20(%rsp),%eax
  401d88:	69 c0 c6 75 00 00    	imul   $0x75c6,%eax,%eax
  401d8e:	89 44 24 e0          	mov    %eax,-0x20(%rsp)
  401d92:	8b 44 24 e4          	mov    -0x1c(%rsp),%eax
  401d96:	69 c0 e9 2e 00 00    	imul   $0x2ee9,%eax,%eax
  401d9c:	89 44 24 e4          	mov    %eax,-0x1c(%rsp)
  401da0:	8b 44 24 e8          	mov    -0x18(%rsp),%eax
  401da4:	69 c0 63 30 00 00    	imul   $0x3063,%eax,%eax
  401daa:	89 44 24 e8          	mov    %eax,-0x18(%rsp)
  401dae:	8b 44 24 ec          	mov    -0x14(%rsp),%eax
  401db2:	69 c0 f4 76 00 00    	imul   $0x76f4,%eax,%eax
  401db8:	89 44 24 ec          	mov    %eax,-0x14(%rsp)
  401dbc:	8b 44 24 dc          	mov    -0x24(%rsp),%eax
  401dc0:	69 c0 99 d7 00 00    	imul   $0xd799,%eax,%eax
  401dc6:	89 44 24 dc          	mov    %eax,-0x24(%rsp)
  401dca:	8b 44 24 e4          	mov    -0x1c(%rsp),%eax
  401dce:	69 c0 97 9f 00 00    	imul   $0x9f97,%eax,%eax
  401dd4:	89 44 24 e4          	mov    %eax,-0x1c(%rsp)
  401dd8:	8b 44 24 ec          	mov    -0x14(%rsp),%eax
  401ddc:	69 c0 49 29 00 00    	imul   $0x2949,%eax,%eax
  401de2:	89 44 24 ec          	mov    %eax,-0x14(%rsp)
  401de6:	8b 44 24 e4          	mov    -0x1c(%rsp),%eax
  401dea:	69 c0 18 03 00 00    	imul   $0x318,%eax,%eax
  401df0:	89 44 24 e4          	mov    %eax,-0x1c(%rsp)
  401df4:	8b 44 24 d8          	mov    -0x28(%rsp),%eax
  401df8:	69 c0 de 31 00 00    	imul   $0x31de,%eax,%eax
  401dfe:	89 44 24 d8          	mov    %eax,-0x28(%rsp)
  401e02:	8b 44 24 f0          	mov    -0x10(%rsp),%eax
  401e06:	69 c0 9f 8f 00 00    	imul   $0x8f9f,%eax,%eax
  401e0c:	89 44 24 f0          	mov    %eax,-0x10(%rsp)
  401e10:	8b 44 24 f0          	mov    -0x10(%rsp),%eax
  401e14:	69 c0 f1 1a 00 00    	imul   $0x1af1,%eax,%eax
  401e1a:	89 44 24 f0          	mov    %eax,-0x10(%rsp)
  401e1e:	8b 44 24 e8          	mov    -0x18(%rsp),%eax
  401e22:	69 c0 ee 9d 00 00    	imul   $0x9dee,%eax,%eax
  401e28:	89 44 24 e8          	mov    %eax,-0x18(%rsp)
  401e2c:	8b 44 24 e0          	mov    -0x20(%rsp),%eax
  401e30:	69 c0 b0 1a 00 00    	imul   $0x1ab0,%eax,%eax
  401e36:	89 44 24 e0          	mov    %eax,-0x20(%rsp)
  401e3a:	8b 44 24 e8          	mov    -0x18(%rsp),%eax
  401e3e:	69 c0 e2 67 00 00    	imul   $0x67e2,%eax,%eax
  401e44:	89 44 24 e8          	mov    %eax,-0x18(%rsp)
  401e48:	8b 44 24 d0          	mov    -0x30(%rsp),%eax
  401e4c:	69 c0 44 03 00 00    	imul   $0x344,%eax,%eax
  401e52:	89 44 24 d0          	mov    %eax,-0x30(%rsp)
  401e56:	8b 44 24 dc          	mov    -0x24(%rsp),%eax
  401e5a:	69 c0 4b 2d 00 00    	imul   $0x2d4b,%eax,%eax
  401e60:	89 44 24 dc          	mov    %eax,-0x24(%rsp)
  401e64:	8b 44 24 ec          	mov    -0x14(%rsp),%eax
  401e68:	69 c0 27 3f 00 00    	imul   $0x3f27,%eax,%eax
  401e6e:	89 44 24 ec          	mov    %eax,-0x14(%rsp)
  401e72:	8b 44 24 e0          	mov    -0x20(%rsp),%eax
  401e76:	69 c0 6e 02 00 00    	imul   $0x26e,%eax,%eax
  401e7c:	89 44 24 e0          	mov    %eax,-0x20(%rsp)
  401e80:	8b 44 24 e0          	mov    -0x20(%rsp),%eax
  401e84:	69 c0 07 60 00 00    	imul   $0x6007,%eax,%eax
  401e8a:	89 44 24 e0          	mov    %eax,-0x20(%rsp)
  401e8e:	8b 44 24 d4          	mov    -0x2c(%rsp),%eax
  401e92:	69 c0 f1 f6 00 00    	imul   $0xf6f1,%eax,%eax
  401e98:	89 44 24 d4          	mov    %eax,-0x2c(%rsp)
  401e9c:	8b 44 24 e0          	mov    -0x20(%rsp),%eax
  401ea0:	69 c0 d9 63 00 00    	imul   $0x63d9,%eax,%eax
  401ea6:	89 44 24 e0          	mov    %eax,-0x20(%rsp)
  401eaa:	8b 44 24 d8          	mov    -0x28(%rsp),%eax
  401eae:	69 c0 16 4d 00 00    	imul   $0x4d16,%eax,%eax
  401eb4:	89 44 24 d8          	mov    %eax,-0x28(%rsp)
  401eb8:	8b 44 24 e0          	mov    -0x20(%rsp),%eax
  401ebc:	69 c0 27 69 00 00    	imul   $0x6927,%eax,%eax
  401ec2:	89 44 24 e0          	mov    %eax,-0x20(%rsp)
  401ec6:	8b 44 24 e8          	mov    -0x18(%rsp),%eax
  401eca:	69 c0 78 3e 00 00    	imul   $0x3e78,%eax,%eax
  401ed0:	89 44 24 e8          	mov    %eax,-0x18(%rsp)
  401ed4:	8b 44 24 d4          	mov    -0x2c(%rsp),%eax
  401ed8:	69 c0 cf eb 00 00    	imul   $0xebcf,%eax,%eax
  401ede:	89 44 24 d4          	mov    %eax,-0x2c(%rsp)
  401ee2:	8b 44 24 d0          	mov    -0x30(%rsp),%eax
  401ee6:	69 c0 38 8f 00 00    	imul   $0x8f38,%eax,%eax
  401eec:	89 44 24 d0          	mov    %eax,-0x30(%rsp)
  401ef0:	8b 44 24 f0          	mov    -0x10(%rsp),%eax
  401ef4:	69 c0 ce 53 00 00    	imul   $0x53ce,%eax,%eax
  401efa:	89 44 24 f0          	mov    %eax,-0x10(%rsp)
  401efe:	ba 00 00 00 00       	mov    $0x0,%edx
  401f03:	b8 00 00 00 00       	mov    $0x0,%eax
  401f08:	eb 0b                	jmp    401f15 <scramble+0x902>
  401f0a:	89 d1                	mov    %edx,%ecx
  401f0c:	8b 4c 8c d0          	mov    -0x30(%rsp,%rcx,4),%ecx
  401f10:	01 c8                	add    %ecx,%eax
  401f12:	83 c2 01             	add    $0x1,%edx
  401f15:	83 fa 09             	cmp    $0x9,%edx
  401f18:	76 f0                	jbe    401f0a <scramble+0x8f7>
  401f1a:	f3 c3                	repz retq 

0000000000401f1c <getbuf>:
  401f1c:	48 83 ec 28          	sub    $0x28,%rsp
  401f20:	48 89 e7             	mov    %rsp,%rdi
  401f23:	e8 b5 03 00 00       	callq  4022dd <Gets>
  401f28:	b8 01 00 00 00       	mov    $0x1,%eax
  401f2d:	48 83 c4 28          	add    $0x28,%rsp
  401f31:	c3                   	retq   

0000000000401f32 <touch1>:
  401f32:	48 83 ec 08          	sub    $0x8,%rsp
  401f36:	c7 05 dc 35 20 00 01 	movl   $0x1,0x2035dc(%rip)        # 60551c <vlevel>
  401f3d:	00 00 00 
  401f40:	48 8d 3d 5e 1b 00 00 	lea    0x1b5e(%rip),%rdi        # 403aa5 <_IO_stdin_used+0x345>
  401f47:	e8 d4 ef ff ff       	callq  400f20 <puts@plt>
  401f4c:	bf 01 00 00 00       	mov    $0x1,%edi
  401f51:	e8 f7 05 00 00       	callq  40254d <validate>
  401f56:	bf 00 00 00 00       	mov    $0x0,%edi
  401f5b:	e8 60 f1 ff ff       	callq  4010c0 <exit@plt>

0000000000401f60 <touch2>:
  401f60:	48 83 ec 08          	sub    $0x8,%rsp
  401f64:	89 fa                	mov    %edi,%edx
  401f66:	c7 05 ac 35 20 00 02 	movl   $0x2,0x2035ac(%rip)        # 60551c <vlevel>
  401f6d:	00 00 00 
  401f70:	39 3d ae 35 20 00    	cmp    %edi,0x2035ae(%rip)        # 605524 <cookie>
  401f76:	74 2a                	je     401fa2 <touch2+0x42>
  401f78:	48 8d 35 71 1b 00 00 	lea    0x1b71(%rip),%rsi        # 403af0 <_IO_stdin_used+0x390>
  401f7f:	bf 01 00 00 00       	mov    $0x1,%edi
  401f84:	b8 00 00 00 00       	mov    $0x0,%eax
  401f89:	e8 e2 f0 ff ff       	callq  401070 <__printf_chk@plt>
  401f8e:	bf 02 00 00 00       	mov    $0x2,%edi
  401f93:	e8 85 06 00 00       	callq  40261d <fail>
  401f98:	bf 00 00 00 00       	mov    $0x0,%edi
  401f9d:	e8 1e f1 ff ff       	callq  4010c0 <exit@plt>
  401fa2:	48 8d 35 1f 1b 00 00 	lea    0x1b1f(%rip),%rsi        # 403ac8 <_IO_stdin_used+0x368>
  401fa9:	bf 01 00 00 00       	mov    $0x1,%edi
  401fae:	b8 00 00 00 00       	mov    $0x0,%eax
  401fb3:	e8 b8 f0 ff ff       	callq  401070 <__printf_chk@plt>
  401fb8:	bf 02 00 00 00       	mov    $0x2,%edi
  401fbd:	e8 8b 05 00 00       	callq  40254d <validate>
  401fc2:	eb d4                	jmp    401f98 <touch2+0x38>

0000000000401fc4 <hexmatch>:
  401fc4:	41 54                	push   %r12
  401fc6:	55                   	push   %rbp
  401fc7:	53                   	push   %rbx
  401fc8:	48 83 c4 80          	add    $0xffffffffffffff80,%rsp
  401fcc:	89 fd                	mov    %edi,%ebp
  401fce:	48 89 f3             	mov    %rsi,%rbx
  401fd1:	64 48 8b 04 25 28 00 	mov    %fs:0x28,%rax
  401fd8:	00 00 
  401fda:	48 89 44 24 78       	mov    %rax,0x78(%rsp)
  401fdf:	31 c0                	xor    %eax,%eax
  401fe1:	e8 4a f0 ff ff       	callq  401030 <random@plt>
  401fe6:	48 89 c1             	mov    %rax,%rcx
  401fe9:	48 ba 0b d7 a3 70 3d 	movabs $0xa3d70a3d70a3d70b,%rdx
  401ff0:	0a d7 a3 
  401ff3:	48 f7 ea             	imul   %rdx
  401ff6:	48 01 ca             	add    %rcx,%rdx
  401ff9:	48 c1 fa 06          	sar    $0x6,%rdx
  401ffd:	48 89 c8             	mov    %rcx,%rax
  402000:	48 c1 f8 3f          	sar    $0x3f,%rax
  402004:	48 29 c2             	sub    %rax,%rdx
  402007:	48 8d 04 92          	lea    (%rdx,%rdx,4),%rax
  40200b:	48 8d 14 80          	lea    (%rax,%rax,4),%rdx
  40200f:	48 8d 04 95 00 00 00 	lea    0x0(,%rdx,4),%rax
  402016:	00 
  402017:	48 29 c1             	sub    %rax,%rcx
  40201a:	4c 8d 24 0c          	lea    (%rsp,%rcx,1),%r12
  40201e:	41 89 e8             	mov    %ebp,%r8d
  402021:	48 8d 0d 9a 1a 00 00 	lea    0x1a9a(%rip),%rcx        # 403ac2 <_IO_stdin_used+0x362>
  402028:	48 c7 c2 ff ff ff ff 	mov    $0xffffffffffffffff,%rdx
  40202f:	be 01 00 00 00       	mov    $0x1,%esi
  402034:	4c 89 e7             	mov    %r12,%rdi
  402037:	b8 00 00 00 00       	mov    $0x0,%eax
  40203c:	e8 af f0 ff ff       	callq  4010f0 <__sprintf_chk@plt>
  402041:	ba 09 00 00 00       	mov    $0x9,%edx
  402046:	4c 89 e6             	mov    %r12,%rsi
  402049:	48 89 df             	mov    %rbx,%rdi
  40204c:	e8 af ee ff ff       	callq  400f00 <strncmp@plt>
  402051:	85 c0                	test   %eax,%eax
  402053:	0f 94 c0             	sete   %al
  402056:	48 8b 5c 24 78       	mov    0x78(%rsp),%rbx
  40205b:	64 48 33 1c 25 28 00 	xor    %fs:0x28,%rbx
  402062:	00 00 
  402064:	75 0c                	jne    402072 <hexmatch+0xae>
  402066:	0f b6 c0             	movzbl %al,%eax
  402069:	48 83 ec 80          	sub    $0xffffffffffffff80,%rsp
  40206d:	5b                   	pop    %rbx
  40206e:	5d                   	pop    %rbp
  40206f:	41 5c                	pop    %r12
  402071:	c3                   	retq   
  402072:	e8 c9 ee ff ff       	callq  400f40 <__stack_chk_fail@plt>

0000000000402077 <touch3>:
  402077:	53                   	push   %rbx
  402078:	48 89 fb             	mov    %rdi,%rbx
  40207b:	c7 05 97 34 20 00 03 	movl   $0x3,0x203497(%rip)        # 60551c <vlevel>
  402082:	00 00 00 
  402085:	48 89 fe             	mov    %rdi,%rsi
  402088:	8b 3d 96 34 20 00    	mov    0x203496(%rip),%edi        # 605524 <cookie>
  40208e:	e8 31 ff ff ff       	callq  401fc4 <hexmatch>
  402093:	85 c0                	test   %eax,%eax
  402095:	74 2d                	je     4020c4 <touch3+0x4d>
  402097:	48 89 da             	mov    %rbx,%rdx
  40209a:	48 8d 35 77 1a 00 00 	lea    0x1a77(%rip),%rsi        # 403b18 <_IO_stdin_used+0x3b8>
  4020a1:	bf 01 00 00 00       	mov    $0x1,%edi
  4020a6:	b8 00 00 00 00       	mov    $0x0,%eax
  4020ab:	e8 c0 ef ff ff       	callq  401070 <__printf_chk@plt>
  4020b0:	bf 03 00 00 00       	mov    $0x3,%edi
  4020b5:	e8 93 04 00 00       	callq  40254d <validate>
  4020ba:	bf 00 00 00 00       	mov    $0x0,%edi
  4020bf:	e8 fc ef ff ff       	callq  4010c0 <exit@plt>
  4020c4:	48 89 da             	mov    %rbx,%rdx
  4020c7:	48 8d 35 72 1a 00 00 	lea    0x1a72(%rip),%rsi        # 403b40 <_IO_stdin_used+0x3e0>
  4020ce:	bf 01 00 00 00       	mov    $0x1,%edi
  4020d3:	b8 00 00 00 00       	mov    $0x0,%eax
  4020d8:	e8 93 ef ff ff       	callq  401070 <__printf_chk@plt>
  4020dd:	bf 03 00 00 00       	mov    $0x3,%edi
  4020e2:	e8 36 05 00 00       	callq  40261d <fail>
  4020e7:	eb d1                	jmp    4020ba <touch3+0x43>

00000000004020e9 <test>:
  4020e9:	48 83 ec 08          	sub    $0x8,%rsp
  4020ed:	b8 00 00 00 00       	mov    $0x0,%eax
  4020f2:	e8 25 fe ff ff       	callq  401f1c <getbuf>
  4020f7:	89 c2                	mov    %eax,%edx
  4020f9:	48 8d 35 68 1a 00 00 	lea    0x1a68(%rip),%rsi        # 403b68 <_IO_stdin_used+0x408>
  402100:	bf 01 00 00 00       	mov    $0x1,%edi
  402105:	b8 00 00 00 00       	mov    $0x0,%eax
  40210a:	e8 61 ef ff ff       	callq  401070 <__printf_chk@plt>
  40210f:	48 83 c4 08          	add    $0x8,%rsp
  402113:	c3                   	retq   

0000000000402114 <start_farm>:
  402114:	b8 01 00 00 00       	mov    $0x1,%eax
  402119:	c3                   	retq   

000000000040211a <addval_377>:
  40211a:	8d 87 db 83 58 94    	lea    -0x6ba77c25(%rdi),%eax
  402120:	c3                   	retq   

0000000000402121 <setval_112>:
  402121:	c7 07 58 c3 04 cf    	movl   $0xcf04c358,(%rdi)
  402127:	c3                   	retq   

0000000000402128 <addval_241>:
  402128:	8d 87 48 89 c7 94    	lea    -0x6b3876b8(%rdi),%eax
  40212e:	c3                   	retq   

000000000040212f <setval_345>:
  40212f:	c7 07 22 48 89 c7    	movl   $0xc7894822,(%rdi)
  402135:	c3                   	retq   

0000000000402136 <setval_195>:
  402136:	c7 07 58 91 90 90    	movl   $0x90909158,(%rdi)
  40213c:	c3                   	retq   

000000000040213d <addval_153>:
  40213d:	8d 87 48 89 c7 90    	lea    -0x6f3876b8(%rdi),%eax
  402143:	c3                   	retq   

0000000000402144 <addval_207>:
  402144:	8d 87 33 e1 a8 58    	lea    0x58a8e133(%rdi),%eax
  40214a:	c3                   	retq   

000000000040214b <setval_483>:
  40214b:	c7 07 c8 89 c7 c3    	movl   $0xc3c789c8,(%rdi)
  402151:	c3                   	retq   

0000000000402152 <mid_farm>:
  402152:	b8 01 00 00 00       	mov    $0x1,%eax
  402157:	c3                   	retq   

0000000000402158 <add_xy>:
  402158:	48 8d 04 37          	lea    (%rdi,%rsi,1),%rax
  40215c:	c3                   	retq   

000000000040215d <addval_417>:
  40215d:	8d 87 89 ca 08 c0    	lea    -0x3ff73577(%rdi),%eax
  402163:	c3                   	retq   

0000000000402164 <setval_372>:
  402164:	c7 07 7c 89 c1 94    	movl   $0x94c1897c,(%rdi)
  40216a:	c3                   	retq   

000000000040216b <addval_448>:
  40216b:	8d 87 89 d6 c1 f4    	lea    -0xb3e2977(%rdi),%eax
  402171:	c3                   	retq   

0000000000402172 <addval_221>:
  402172:	8d 87 8b ca 20 d2    	lea    -0x2ddf3575(%rdi),%eax
  402178:	c3                   	retq   

0000000000402179 <setval_218>:
  402179:	c7 07 48 89 e0 94    	movl   $0x94e08948,(%rdi)
  40217f:	c3                   	retq   

0000000000402180 <addval_150>:
  402180:	8d 87 89 d6 c4 c9    	lea    -0x363b2977(%rdi),%eax
  402186:	c3                   	retq   

0000000000402187 <addval_160>:
  402187:	8d 87 32 89 ca 91    	lea    -0x6e3576ce(%rdi),%eax
  40218d:	c3                   	retq   

000000000040218e <addval_380>:
  40218e:	8d 87 89 c1 84 c0    	lea    -0x3f7b3e77(%rdi),%eax
  402194:	c3                   	retq   

0000000000402195 <getval_374>:
  402195:	b8 5b 88 c1 c3       	mov    $0xc3c1885b,%eax
  40219a:	c3                   	retq   

000000000040219b <getval_412>:
  40219b:	b8 48 89 e0 92       	mov    $0x92e08948,%eax
  4021a0:	c3                   	retq   

00000000004021a1 <getval_480>:
  4021a1:	b8 09 c1 08 db       	mov    $0xdb08c109,%eax
  4021a6:	c3                   	retq   

00000000004021a7 <addval_264>:
  4021a7:	8d 87 8d d6 38 c9    	lea    -0x36c72973(%rdi),%eax
  4021ad:	c3                   	retq   

00000000004021ae <getval_296>:
  4021ae:	b8 89 c1 18 d2       	mov    $0xd218c189,%eax
  4021b3:	c3                   	retq   

00000000004021b4 <addval_327>:
  4021b4:	8d 87 99 c1 08 db    	lea    -0x24f73e67(%rdi),%eax
  4021ba:	c3                   	retq   

00000000004021bb <addval_149>:
  4021bb:	8d 87 89 ca c2 7c    	lea    0x7cc2ca89(%rdi),%eax
  4021c1:	c3                   	retq   

00000000004021c2 <addval_484>:
  4021c2:	8d 87 48 89 e0 90    	lea    -0x6f1f76b8(%rdi),%eax
  4021c8:	c3                   	retq   

00000000004021c9 <setval_290>:
  4021c9:	c7 07 89 d6 08 db    	movl   $0xdb08d689,(%rdi)
  4021cf:	c3                   	retq   

00000000004021d0 <getval_437>:
  4021d0:	b8 ab 89 ca c3       	mov    $0xc3ca89ab,%eax
  4021d5:	c3                   	retq   

00000000004021d6 <getval_122>:
  4021d6:	b8 48 89 e0 c3       	mov    $0xc3e08948,%eax
  4021db:	c3                   	retq   

00000000004021dc <getval_208>:
  4021dc:	b8 48 89 e0 91       	mov    $0x91e08948,%eax
  4021e1:	c3                   	retq   

00000000004021e2 <getval_385>:
  4021e2:	b8 68 89 ca c2       	mov    $0xc2ca8968,%eax
  4021e7:	c3                   	retq   

00000000004021e8 <setval_139>:
  4021e8:	c7 07 ac 89 c1 90    	movl   $0x90c189ac,(%rdi)
  4021ee:	c3                   	retq   

00000000004021ef <addval_486>:
  4021ef:	8d 87 89 d6 18 db    	lea    -0x24e72977(%rdi),%eax
  4021f5:	c3                   	retq   

00000000004021f6 <addval_434>:
  4021f6:	8d 87 89 d6 90 90    	lea    -0x6f6f2977(%rdi),%eax
  4021fc:	c3                   	retq   

00000000004021fd <getval_487>:
  4021fd:	b8 a9 d6 84 db       	mov    $0xdb84d6a9,%eax
  402202:	c3                   	retq   

0000000000402203 <getval_315>:
  402203:	b8 89 c1 c7 2c       	mov    $0x2cc7c189,%eax
  402208:	c3                   	retq   

0000000000402209 <setval_156>:
  402209:	c7 07 09 d6 84 db    	movl   $0xdb84d609,(%rdi)
  40220f:	c3                   	retq   

0000000000402210 <setval_220>:
  402210:	c7 07 48 89 e0 94    	movl   $0x94e08948,(%rdi)
  402216:	c3                   	retq   

0000000000402217 <getval_135>:
  402217:	b8 24 4c 89 e0       	mov    $0xe0894c24,%eax
  40221c:	c3                   	retq   

000000000040221d <getval_138>:
  40221d:	b8 48 89 e0 94       	mov    $0x94e08948,%eax
  402222:	c3                   	retq   

0000000000402223 <getval_217>:
  402223:	b8 89 ca 18 c0       	mov    $0xc018ca89,%eax
  402228:	c3                   	retq   

0000000000402229 <getval_454>:
  402229:	b8 99 ca 38 c9       	mov    $0xc938ca99,%eax
  40222e:	c3                   	retq   

000000000040222f <end_farm>:
  40222f:	b8 01 00 00 00       	mov    $0x1,%eax
  402234:	c3                   	retq   

0000000000402235 <save_char>:
  402235:	8b 05 09 3f 20 00    	mov    0x203f09(%rip),%eax        # 606144 <gets_cnt>
  40223b:	3d ff 03 00 00       	cmp    $0x3ff,%eax
  402240:	7f 4a                	jg     40228c <save_char+0x57>
  402242:	8d 14 40             	lea    (%rax,%rax,2),%edx
  402245:	89 f9                	mov    %edi,%ecx
  402247:	c0 e9 04             	shr    $0x4,%cl
  40224a:	4c 8d 05 3f 1c 00 00 	lea    0x1c3f(%rip),%r8        # 403e90 <trans_char>
  402251:	83 e1 0f             	and    $0xf,%ecx
  402254:	45 0f b6 0c 08       	movzbl (%r8,%rcx,1),%r9d
  402259:	48 8d 0d e0 32 20 00 	lea    0x2032e0(%rip),%rcx        # 605540 <gets_buf>
  402260:	48 63 f2             	movslq %edx,%rsi
  402263:	44 88 0c 31          	mov    %r9b,(%rcx,%rsi,1)
  402267:	8d 72 01             	lea    0x1(%rdx),%esi
  40226a:	83 e7 0f             	and    $0xf,%edi
  40226d:	41 0f b6 3c 38       	movzbl (%r8,%rdi,1),%edi
  402272:	48 63 f6             	movslq %esi,%rsi
  402275:	40 88 3c 31          	mov    %dil,(%rcx,%rsi,1)
  402279:	83 c2 02             	add    $0x2,%edx
  40227c:	48 63 d2             	movslq %edx,%rdx
  40227f:	c6 04 11 20          	movb   $0x20,(%rcx,%rdx,1)
  402283:	83 c0 01             	add    $0x1,%eax
  402286:	89 05 b8 3e 20 00    	mov    %eax,0x203eb8(%rip)        # 606144 <gets_cnt>
  40228c:	f3 c3                	repz retq 

000000000040228e <save_term>:
  40228e:	8b 05 b0 3e 20 00    	mov    0x203eb0(%rip),%eax        # 606144 <gets_cnt>
  402294:	8d 04 40             	lea    (%rax,%rax,2),%eax
  402297:	48 98                	cltq   
  402299:	48 8d 15 a0 32 20 00 	lea    0x2032a0(%rip),%rdx        # 605540 <gets_buf>
  4022a0:	c6 04 02 00          	movb   $0x0,(%rdx,%rax,1)
  4022a4:	c3                   	retq   

00000000004022a5 <check_fail>:
  4022a5:	48 83 ec 08          	sub    $0x8,%rsp
  4022a9:	0f be 15 98 3e 20 00 	movsbl 0x203e98(%rip),%edx        # 606148 <target_prefix>
  4022b0:	4c 8d 05 89 32 20 00 	lea    0x203289(%rip),%r8        # 605540 <gets_buf>
  4022b7:	8b 0d 5b 32 20 00    	mov    0x20325b(%rip),%ecx        # 605518 <check_level>
  4022bd:	48 8d 35 c7 18 00 00 	lea    0x18c7(%rip),%rsi        # 403b8b <_IO_stdin_used+0x42b>
  4022c4:	bf 01 00 00 00       	mov    $0x1,%edi
  4022c9:	b8 00 00 00 00       	mov    $0x0,%eax
  4022ce:	e8 9d ed ff ff       	callq  401070 <__printf_chk@plt>
  4022d3:	bf 01 00 00 00       	mov    $0x1,%edi
  4022d8:	e8 e3 ed ff ff       	callq  4010c0 <exit@plt>

00000000004022dd <Gets>:
  4022dd:	41 54                	push   %r12
  4022df:	55                   	push   %rbp
  4022e0:	53                   	push   %rbx
  4022e1:	49 89 fc             	mov    %rdi,%r12
  4022e4:	c7 05 56 3e 20 00 00 	movl   $0x0,0x203e56(%rip)        # 606144 <gets_cnt>
  4022eb:	00 00 00 
  4022ee:	48 89 fb             	mov    %rdi,%rbx
  4022f1:	eb 11                	jmp    402304 <Gets+0x27>
  4022f3:	48 8d 6b 01          	lea    0x1(%rbx),%rbp
  4022f7:	88 03                	mov    %al,(%rbx)
  4022f9:	0f b6 f8             	movzbl %al,%edi
  4022fc:	e8 34 ff ff ff       	callq  402235 <save_char>
  402301:	48 89 eb             	mov    %rbp,%rbx
  402304:	48 8b 3d 05 32 20 00 	mov    0x203205(%rip),%rdi        # 605510 <infile>
  40230b:	e8 30 ed ff ff       	callq  401040 <_IO_getc@plt>
  402310:	83 f8 ff             	cmp    $0xffffffff,%eax
  402313:	74 05                	je     40231a <Gets+0x3d>
  402315:	83 f8 0a             	cmp    $0xa,%eax
  402318:	75 d9                	jne    4022f3 <Gets+0x16>
  40231a:	c6 03 00             	movb   $0x0,(%rbx)
  40231d:	b8 00 00 00 00       	mov    $0x0,%eax
  402322:	e8 67 ff ff ff       	callq  40228e <save_term>
  402327:	4c 89 e0             	mov    %r12,%rax
  40232a:	5b                   	pop    %rbx
  40232b:	5d                   	pop    %rbp
  40232c:	41 5c                	pop    %r12
  40232e:	c3                   	retq   

000000000040232f <notify_server>:
  40232f:	55                   	push   %rbp
  402330:	53                   	push   %rbx
  402331:	48 81 ec 18 40 00 00 	sub    $0x4018,%rsp
  402338:	64 48 8b 04 25 28 00 	mov    %fs:0x28,%rax
  40233f:	00 00 
  402341:	48 89 84 24 08 40 00 	mov    %rax,0x4008(%rsp)
  402348:	00 
  402349:	31 c0                	xor    %eax,%eax
  40234b:	83 3d d6 31 20 00 00 	cmpl   $0x0,0x2031d6(%rip)        # 605528 <is_checker>
  402352:	0f 85 d2 00 00 00    	jne    40242a <notify_server+0xfb>
  402358:	89 fb                	mov    %edi,%ebx
  40235a:	8b 05 e4 3d 20 00    	mov    0x203de4(%rip),%eax        # 606144 <gets_cnt>
  402360:	83 c0 64             	add    $0x64,%eax
  402363:	3d 00 20 00 00       	cmp    $0x2000,%eax
  402368:	0f 8f dd 00 00 00    	jg     40244b <notify_server+0x11c>
  40236e:	0f be 05 d3 3d 20 00 	movsbl 0x203dd3(%rip),%eax        # 606148 <target_prefix>
  402375:	83 3d 2c 31 20 00 00 	cmpl   $0x0,0x20312c(%rip)        # 6054a8 <notify>
  40237c:	0f 84 e9 00 00 00    	je     40246b <notify_server+0x13c>
  402382:	8b 15 98 31 20 00    	mov    0x203198(%rip),%edx        # 605520 <authkey>
  402388:	85 db                	test   %ebx,%ebx
  40238a:	0f 84 e5 00 00 00    	je     402475 <notify_server+0x146>
  402390:	48 8d 2d 0a 18 00 00 	lea    0x180a(%rip),%rbp        # 403ba1 <_IO_stdin_used+0x441>
  402397:	48 89 e7             	mov    %rsp,%rdi
  40239a:	48 8d 0d 9f 31 20 00 	lea    0x20319f(%rip),%rcx        # 605540 <gets_buf>
  4023a1:	51                   	push   %rcx
  4023a2:	56                   	push   %rsi
  4023a3:	50                   	push   %rax
  4023a4:	52                   	push   %rdx
  4023a5:	49 89 e9             	mov    %rbp,%r9
  4023a8:	44 8b 05 b9 2d 20 00 	mov    0x202db9(%rip),%r8d        # 605168 <target_id>
  4023af:	48 8d 0d f5 17 00 00 	lea    0x17f5(%rip),%rcx        # 403bab <_IO_stdin_used+0x44b>
  4023b6:	ba 00 20 00 00       	mov    $0x2000,%edx
  4023bb:	be 01 00 00 00       	mov    $0x1,%esi
  4023c0:	b8 00 00 00 00       	mov    $0x0,%eax
  4023c5:	e8 26 ed ff ff       	callq  4010f0 <__sprintf_chk@plt>
  4023ca:	48 83 c4 20          	add    $0x20,%rsp
  4023ce:	83 3d d3 30 20 00 00 	cmpl   $0x0,0x2030d3(%rip)        # 6054a8 <notify>
  4023d5:	0f 84 df 00 00 00    	je     4024ba <notify_server+0x18b>
  4023db:	85 db                	test   %ebx,%ebx
  4023dd:	0f 84 c6 00 00 00    	je     4024a9 <notify_server+0x17a>
  4023e3:	48 89 e1             	mov    %rsp,%rcx
  4023e6:	4c 8d 8c 24 00 20 00 	lea    0x2000(%rsp),%r9
  4023ed:	00 
  4023ee:	41 b8 00 00 00 00    	mov    $0x0,%r8d
  4023f4:	48 8b 15 75 2d 20 00 	mov    0x202d75(%rip),%rdx        # 605170 <lab>
  4023fb:	48 8b 35 76 2d 20 00 	mov    0x202d76(%rip),%rsi        # 605178 <course>
  402402:	48 8b 3d 57 2d 20 00 	mov    0x202d57(%rip),%rdi        # 605160 <user_id>
  402409:	e8 b4 11 00 00       	callq  4035c2 <driver_post>
  40240e:	85 c0                	test   %eax,%eax
  402410:	78 6f                	js     402481 <notify_server+0x152>
  402412:	48 8d 3d d7 18 00 00 	lea    0x18d7(%rip),%rdi        # 403cf0 <_IO_stdin_used+0x590>
  402419:	e8 02 eb ff ff       	callq  400f20 <puts@plt>
  40241e:	48 8d 3d ae 17 00 00 	lea    0x17ae(%rip),%rdi        # 403bd3 <_IO_stdin_used+0x473>
  402425:	e8 f6 ea ff ff       	callq  400f20 <puts@plt>
  40242a:	48 8b 84 24 08 40 00 	mov    0x4008(%rsp),%rax
  402431:	00 
  402432:	64 48 33 04 25 28 00 	xor    %fs:0x28,%rax
  402439:	00 00 
  40243b:	0f 85 07 01 00 00    	jne    402548 <notify_server+0x219>
  402441:	48 81 c4 18 40 00 00 	add    $0x4018,%rsp
  402448:	5b                   	pop    %rbx
  402449:	5d                   	pop    %rbp
  40244a:	c3                   	retq   
  40244b:	48 8d 35 6e 18 00 00 	lea    0x186e(%rip),%rsi        # 403cc0 <_IO_stdin_used+0x560>
  402452:	bf 01 00 00 00       	mov    $0x1,%edi
  402457:	b8 00 00 00 00       	mov    $0x0,%eax
  40245c:	e8 0f ec ff ff       	callq  401070 <__printf_chk@plt>
  402461:	bf 01 00 00 00       	mov    $0x1,%edi
  402466:	e8 55 ec ff ff       	callq  4010c0 <exit@plt>
  40246b:	ba ff ff ff ff       	mov    $0xffffffff,%edx
  402470:	e9 13 ff ff ff       	jmpq   402388 <notify_server+0x59>
  402475:	48 8d 2d 2a 17 00 00 	lea    0x172a(%rip),%rbp        # 403ba6 <_IO_stdin_used+0x446>
  40247c:	e9 16 ff ff ff       	jmpq   402397 <notify_server+0x68>
  402481:	48 8d 94 24 00 20 00 	lea    0x2000(%rsp),%rdx
  402488:	00 
  402489:	48 8d 35 37 17 00 00 	lea    0x1737(%rip),%rsi        # 403bc7 <_IO_stdin_used+0x467>
  402490:	bf 01 00 00 00       	mov    $0x1,%edi
  402495:	b8 00 00 00 00       	mov    $0x0,%eax
  40249a:	e8 d1 eb ff ff       	callq  401070 <__printf_chk@plt>
  40249f:	bf 01 00 00 00       	mov    $0x1,%edi
  4024a4:	e8 17 ec ff ff       	callq  4010c0 <exit@plt>
  4024a9:	48 8d 3d 2d 17 00 00 	lea    0x172d(%rip),%rdi        # 403bdd <_IO_stdin_used+0x47d>
  4024b0:	e8 6b ea ff ff       	callq  400f20 <puts@plt>
  4024b5:	e9 70 ff ff ff       	jmpq   40242a <notify_server+0xfb>
  4024ba:	48 89 ea             	mov    %rbp,%rdx
  4024bd:	48 8d 35 64 18 00 00 	lea    0x1864(%rip),%rsi        # 403d28 <_IO_stdin_used+0x5c8>
  4024c4:	bf 01 00 00 00       	mov    $0x1,%edi
  4024c9:	b8 00 00 00 00       	mov    $0x0,%eax
  4024ce:	e8 9d eb ff ff       	callq  401070 <__printf_chk@plt>
  4024d3:	48 8b 15 86 2c 20 00 	mov    0x202c86(%rip),%rdx        # 605160 <user_id>
  4024da:	48 8d 35 03 17 00 00 	lea    0x1703(%rip),%rsi        # 403be4 <_IO_stdin_used+0x484>
  4024e1:	bf 01 00 00 00       	mov    $0x1,%edi
  4024e6:	b8 00 00 00 00       	mov    $0x0,%eax
  4024eb:	e8 80 eb ff ff       	callq  401070 <__printf_chk@plt>
  4024f0:	48 8b 15 81 2c 20 00 	mov    0x202c81(%rip),%rdx        # 605178 <course>
  4024f7:	48 8d 35 f3 16 00 00 	lea    0x16f3(%rip),%rsi        # 403bf1 <_IO_stdin_used+0x491>
  4024fe:	bf 01 00 00 00       	mov    $0x1,%edi
  402503:	b8 00 00 00 00       	mov    $0x0,%eax
  402508:	e8 63 eb ff ff       	callq  401070 <__printf_chk@plt>
  40250d:	48 8b 15 5c 2c 20 00 	mov    0x202c5c(%rip),%rdx        # 605170 <lab>
  402514:	48 8d 35 e2 16 00 00 	lea    0x16e2(%rip),%rsi        # 403bfd <_IO_stdin_used+0x49d>
  40251b:	bf 01 00 00 00       	mov    $0x1,%edi
  402520:	b8 00 00 00 00       	mov    $0x0,%eax
  402525:	e8 46 eb ff ff       	callq  401070 <__printf_chk@plt>
  40252a:	48 89 e2             	mov    %rsp,%rdx
  40252d:	48 8d 35 d2 16 00 00 	lea    0x16d2(%rip),%rsi        # 403c06 <_IO_stdin_used+0x4a6>
  402534:	bf 01 00 00 00       	mov    $0x1,%edi
  402539:	b8 00 00 00 00       	mov    $0x0,%eax
  40253e:	e8 2d eb ff ff       	callq  401070 <__printf_chk@plt>
  402543:	e9 e2 fe ff ff       	jmpq   40242a <notify_server+0xfb>
  402548:	e8 f3 e9 ff ff       	callq  400f40 <__stack_chk_fail@plt>

000000000040254d <validate>:
  40254d:	53                   	push   %rbx
  40254e:	89 fb                	mov    %edi,%ebx
  402550:	83 3d d1 2f 20 00 00 	cmpl   $0x0,0x202fd1(%rip)        # 605528 <is_checker>
  402557:	74 72                	je     4025cb <validate+0x7e>
  402559:	39 3d bd 2f 20 00    	cmp    %edi,0x202fbd(%rip)        # 60551c <vlevel>
  40255f:	75 32                	jne    402593 <validate+0x46>
  402561:	8b 15 b1 2f 20 00    	mov    0x202fb1(%rip),%edx        # 605518 <check_level>
  402567:	39 d7                	cmp    %edx,%edi
  402569:	75 3e                	jne    4025a9 <validate+0x5c>
  40256b:	0f be 15 d6 3b 20 00 	movsbl 0x203bd6(%rip),%edx        # 606148 <target_prefix>
  402572:	4c 8d 05 c7 2f 20 00 	lea    0x202fc7(%rip),%r8        # 605540 <gets_buf>
  402579:	89 f9                	mov    %edi,%ecx
  40257b:	48 8d 35 ae 16 00 00 	lea    0x16ae(%rip),%rsi        # 403c30 <_IO_stdin_used+0x4d0>
  402582:	bf 01 00 00 00       	mov    $0x1,%edi
  402587:	b8 00 00 00 00       	mov    $0x0,%eax
  40258c:	e8 df ea ff ff       	callq  401070 <__printf_chk@plt>
  402591:	5b                   	pop    %rbx
  402592:	c3                   	retq   
  402593:	48 8d 3d 78 16 00 00 	lea    0x1678(%rip),%rdi        # 403c12 <_IO_stdin_used+0x4b2>
  40259a:	e8 81 e9 ff ff       	callq  400f20 <puts@plt>
  40259f:	b8 00 00 00 00       	mov    $0x0,%eax
  4025a4:	e8 fc fc ff ff       	callq  4022a5 <check_fail>
  4025a9:	89 f9                	mov    %edi,%ecx
  4025ab:	48 8d 35 9e 17 00 00 	lea    0x179e(%rip),%rsi        # 403d50 <_IO_stdin_used+0x5f0>
  4025b2:	bf 01 00 00 00       	mov    $0x1,%edi
  4025b7:	b8 00 00 00 00       	mov    $0x0,%eax
  4025bc:	e8 af ea ff ff       	callq  401070 <__printf_chk@plt>
  4025c1:	b8 00 00 00 00       	mov    $0x0,%eax
  4025c6:	e8 da fc ff ff       	callq  4022a5 <check_fail>
  4025cb:	3b 3d 4b 2f 20 00    	cmp    0x202f4b(%rip),%edi        # 60551c <vlevel>
  4025d1:	74 1a                	je     4025ed <validate+0xa0>
  4025d3:	48 8d 3d 38 16 00 00 	lea    0x1638(%rip),%rdi        # 403c12 <_IO_stdin_used+0x4b2>
  4025da:	e8 41 e9 ff ff       	callq  400f20 <puts@plt>
  4025df:	89 de                	mov    %ebx,%esi
  4025e1:	bf 00 00 00 00       	mov    $0x0,%edi
  4025e6:	e8 44 fd ff ff       	callq  40232f <notify_server>
  4025eb:	eb a4                	jmp    402591 <validate+0x44>
  4025ed:	0f be 0d 54 3b 20 00 	movsbl 0x203b54(%rip),%ecx        # 606148 <target_prefix>
  4025f4:	89 fa                	mov    %edi,%edx
  4025f6:	48 8d 35 7b 17 00 00 	lea    0x177b(%rip),%rsi        # 403d78 <_IO_stdin_used+0x618>
  4025fd:	bf 01 00 00 00       	mov    $0x1,%edi
  402602:	b8 00 00 00 00       	mov    $0x0,%eax
  402607:	e8 64 ea ff ff       	callq  401070 <__printf_chk@plt>
  40260c:	89 de                	mov    %ebx,%esi
  40260e:	bf 01 00 00 00       	mov    $0x1,%edi
  402613:	e8 17 fd ff ff       	callq  40232f <notify_server>
  402618:	e9 74 ff ff ff       	jmpq   402591 <validate+0x44>

000000000040261d <fail>:
  40261d:	48 83 ec 08          	sub    $0x8,%rsp
  402621:	83 3d 00 2f 20 00 00 	cmpl   $0x0,0x202f00(%rip)        # 605528 <is_checker>
  402628:	75 11                	jne    40263b <fail+0x1e>
  40262a:	89 fe                	mov    %edi,%esi
  40262c:	bf 00 00 00 00       	mov    $0x0,%edi
  402631:	e8 f9 fc ff ff       	callq  40232f <notify_server>
  402636:	48 83 c4 08          	add    $0x8,%rsp
  40263a:	c3                   	retq   
  40263b:	b8 00 00 00 00       	mov    $0x0,%eax
  402640:	e8 60 fc ff ff       	callq  4022a5 <check_fail>

0000000000402645 <bushandler>:
  402645:	48 83 ec 08          	sub    $0x8,%rsp
  402649:	83 3d d8 2e 20 00 00 	cmpl   $0x0,0x202ed8(%rip)        # 605528 <is_checker>
  402650:	74 16                	je     402668 <bushandler+0x23>
  402652:	48 8d 3d ec 15 00 00 	lea    0x15ec(%rip),%rdi        # 403c45 <_IO_stdin_used+0x4e5>
  402659:	e8 c2 e8 ff ff       	callq  400f20 <puts@plt>
  40265e:	b8 00 00 00 00       	mov    $0x0,%eax
  402663:	e8 3d fc ff ff       	callq  4022a5 <check_fail>
  402668:	48 8d 3d 41 17 00 00 	lea    0x1741(%rip),%rdi        # 403db0 <_IO_stdin_used+0x650>
  40266f:	e8 ac e8 ff ff       	callq  400f20 <puts@plt>
  402674:	48 8d 3d d4 15 00 00 	lea    0x15d4(%rip),%rdi        # 403c4f <_IO_stdin_used+0x4ef>
  40267b:	e8 a0 e8 ff ff       	callq  400f20 <puts@plt>
  402680:	be 00 00 00 00       	mov    $0x0,%esi
  402685:	bf 00 00 00 00       	mov    $0x0,%edi
  40268a:	e8 a0 fc ff ff       	callq  40232f <notify_server>
  40268f:	bf 01 00 00 00       	mov    $0x1,%edi
  402694:	e8 27 ea ff ff       	callq  4010c0 <exit@plt>

0000000000402699 <seghandler>:
  402699:	48 83 ec 08          	sub    $0x8,%rsp
  40269d:	83 3d 84 2e 20 00 00 	cmpl   $0x0,0x202e84(%rip)        # 605528 <is_checker>
  4026a4:	74 16                	je     4026bc <seghandler+0x23>
  4026a6:	48 8d 3d b8 15 00 00 	lea    0x15b8(%rip),%rdi        # 403c65 <_IO_stdin_used+0x505>
  4026ad:	e8 6e e8 ff ff       	callq  400f20 <puts@plt>
  4026b2:	b8 00 00 00 00       	mov    $0x0,%eax
  4026b7:	e8 e9 fb ff ff       	callq  4022a5 <check_fail>
  4026bc:	48 8d 3d 0d 17 00 00 	lea    0x170d(%rip),%rdi        # 403dd0 <_IO_stdin_used+0x670>
  4026c3:	e8 58 e8 ff ff       	callq  400f20 <puts@plt>
  4026c8:	48 8d 3d 80 15 00 00 	lea    0x1580(%rip),%rdi        # 403c4f <_IO_stdin_used+0x4ef>
  4026cf:	e8 4c e8 ff ff       	callq  400f20 <puts@plt>
  4026d4:	be 00 00 00 00       	mov    $0x0,%esi
  4026d9:	bf 00 00 00 00       	mov    $0x0,%edi
  4026de:	e8 4c fc ff ff       	callq  40232f <notify_server>
  4026e3:	bf 01 00 00 00       	mov    $0x1,%edi
  4026e8:	e8 d3 e9 ff ff       	callq  4010c0 <exit@plt>

00000000004026ed <illegalhandler>:
  4026ed:	48 83 ec 08          	sub    $0x8,%rsp
  4026f1:	83 3d 30 2e 20 00 00 	cmpl   $0x0,0x202e30(%rip)        # 605528 <is_checker>
  4026f8:	74 16                	je     402710 <illegalhandler+0x23>
  4026fa:	48 8d 3d 77 15 00 00 	lea    0x1577(%rip),%rdi        # 403c78 <_IO_stdin_used+0x518>
  402701:	e8 1a e8 ff ff       	callq  400f20 <puts@plt>
  402706:	b8 00 00 00 00       	mov    $0x0,%eax
  40270b:	e8 95 fb ff ff       	callq  4022a5 <check_fail>
  402710:	48 8d 3d e1 16 00 00 	lea    0x16e1(%rip),%rdi        # 403df8 <_IO_stdin_used+0x698>
  402717:	e8 04 e8 ff ff       	callq  400f20 <puts@plt>
  40271c:	48 8d 3d 2c 15 00 00 	lea    0x152c(%rip),%rdi        # 403c4f <_IO_stdin_used+0x4ef>
  402723:	e8 f8 e7 ff ff       	callq  400f20 <puts@plt>
  402728:	be 00 00 00 00       	mov    $0x0,%esi
  40272d:	bf 00 00 00 00       	mov    $0x0,%edi
  402732:	e8 f8 fb ff ff       	callq  40232f <notify_server>
  402737:	bf 01 00 00 00       	mov    $0x1,%edi
  40273c:	e8 7f e9 ff ff       	callq  4010c0 <exit@plt>

0000000000402741 <sigalrmhandler>:
  402741:	48 83 ec 08          	sub    $0x8,%rsp
  402745:	83 3d dc 2d 20 00 00 	cmpl   $0x0,0x202ddc(%rip)        # 605528 <is_checker>
  40274c:	74 16                	je     402764 <sigalrmhandler+0x23>
  40274e:	48 8d 3d 37 15 00 00 	lea    0x1537(%rip),%rdi        # 403c8c <_IO_stdin_used+0x52c>
  402755:	e8 c6 e7 ff ff       	callq  400f20 <puts@plt>
  40275a:	b8 00 00 00 00       	mov    $0x0,%eax
  40275f:	e8 41 fb ff ff       	callq  4022a5 <check_fail>
  402764:	ba 05 00 00 00       	mov    $0x5,%edx
  402769:	48 8d 35 b8 16 00 00 	lea    0x16b8(%rip),%rsi        # 403e28 <_IO_stdin_used+0x6c8>
  402770:	bf 01 00 00 00       	mov    $0x1,%edi
  402775:	b8 00 00 00 00       	mov    $0x0,%eax
  40277a:	e8 f1 e8 ff ff       	callq  401070 <__printf_chk@plt>
  40277f:	be 00 00 00 00       	mov    $0x0,%esi
  402784:	bf 00 00 00 00       	mov    $0x0,%edi
  402789:	e8 a1 fb ff ff       	callq  40232f <notify_server>
  40278e:	bf 01 00 00 00       	mov    $0x1,%edi
  402793:	e8 28 e9 ff ff       	callq  4010c0 <exit@plt>

0000000000402798 <launch>:
  402798:	55                   	push   %rbp
  402799:	48 89 e5             	mov    %rsp,%rbp
  40279c:	48 83 ec 10          	sub    $0x10,%rsp
  4027a0:	48 89 fa             	mov    %rdi,%rdx
  4027a3:	64 48 8b 04 25 28 00 	mov    %fs:0x28,%rax
  4027aa:	00 00 
  4027ac:	48 89 45 f8          	mov    %rax,-0x8(%rbp)
  4027b0:	31 c0                	xor    %eax,%eax
  4027b2:	48 8d 47 1e          	lea    0x1e(%rdi),%rax
  4027b6:	48 83 e0 f0          	and    $0xfffffffffffffff0,%rax
  4027ba:	48 29 c4             	sub    %rax,%rsp
  4027bd:	48 8d 7c 24 0f       	lea    0xf(%rsp),%rdi
  4027c2:	48 83 e7 f0          	and    $0xfffffffffffffff0,%rdi
  4027c6:	be f4 00 00 00       	mov    $0xf4,%esi
  4027cb:	e8 a0 e7 ff ff       	callq  400f70 <memset@plt>
  4027d0:	48 8b 05 e9 2c 20 00 	mov    0x202ce9(%rip),%rax        # 6054c0 <stdin@@GLIBC_2.2.5>
  4027d7:	48 39 05 32 2d 20 00 	cmp    %rax,0x202d32(%rip)        # 605510 <infile>
  4027de:	74 3a                	je     40281a <launch+0x82>
  4027e0:	c7 05 32 2d 20 00 00 	movl   $0x0,0x202d32(%rip)        # 60551c <vlevel>
  4027e7:	00 00 00 
  4027ea:	b8 00 00 00 00       	mov    $0x0,%eax
  4027ef:	e8 f5 f8 ff ff       	callq  4020e9 <test>
  4027f4:	83 3d 2d 2d 20 00 00 	cmpl   $0x0,0x202d2d(%rip)        # 605528 <is_checker>
  4027fb:	75 35                	jne    402832 <launch+0x9a>
  4027fd:	48 8d 3d a8 14 00 00 	lea    0x14a8(%rip),%rdi        # 403cac <_IO_stdin_used+0x54c>
  402804:	e8 17 e7 ff ff       	callq  400f20 <puts@plt>
  402809:	48 8b 45 f8          	mov    -0x8(%rbp),%rax
  40280d:	64 48 33 04 25 28 00 	xor    %fs:0x28,%rax
  402814:	00 00 
  402816:	75 30                	jne    402848 <launch+0xb0>
  402818:	c9                   	leaveq 
  402819:	c3                   	retq   
  40281a:	48 8d 35 73 14 00 00 	lea    0x1473(%rip),%rsi        # 403c94 <_IO_stdin_used+0x534>
  402821:	bf 01 00 00 00       	mov    $0x1,%edi
  402826:	b8 00 00 00 00       	mov    $0x0,%eax
  40282b:	e8 40 e8 ff ff       	callq  401070 <__printf_chk@plt>
  402830:	eb ae                	jmp    4027e0 <launch+0x48>
  402832:	48 8d 3d 68 14 00 00 	lea    0x1468(%rip),%rdi        # 403ca1 <_IO_stdin_used+0x541>
  402839:	e8 e2 e6 ff ff       	callq  400f20 <puts@plt>
  40283e:	b8 00 00 00 00       	mov    $0x0,%eax
  402843:	e8 5d fa ff ff       	callq  4022a5 <check_fail>
  402848:	e8 f3 e6 ff ff       	callq  400f40 <__stack_chk_fail@plt>

000000000040284d <stable_launch>:
  40284d:	53                   	push   %rbx
  40284e:	48 89 3d b3 2c 20 00 	mov    %rdi,0x202cb3(%rip)        # 605508 <global_offset>
  402855:	41 b9 00 00 00 00    	mov    $0x0,%r9d
  40285b:	41 b8 00 00 00 00    	mov    $0x0,%r8d
  402861:	b9 32 01 00 00       	mov    $0x132,%ecx
  402866:	ba 07 00 00 00       	mov    $0x7,%edx
  40286b:	be 00 00 10 00       	mov    $0x100000,%esi
  402870:	bf 00 60 58 55       	mov    $0x55586000,%edi
  402875:	e8 d6 e6 ff ff       	callq  400f50 <mmap@plt>
  40287a:	48 89 c3             	mov    %rax,%rbx
  40287d:	48 3d 00 60 58 55    	cmp    $0x55586000,%rax
  402883:	75 43                	jne    4028c8 <stable_launch+0x7b>
  402885:	48 8d 90 f8 ff 0f 00 	lea    0xffff8(%rax),%rdx
  40288c:	48 89 15 bd 38 20 00 	mov    %rdx,0x2038bd(%rip)        # 606150 <stack_top>
  402893:	48 89 e0             	mov    %rsp,%rax
  402896:	48 89 d4             	mov    %rdx,%rsp
  402899:	48 89 c2             	mov    %rax,%rdx
  40289c:	48 89 15 5d 2c 20 00 	mov    %rdx,0x202c5d(%rip)        # 605500 <global_save_stack>
  4028a3:	48 8b 3d 5e 2c 20 00 	mov    0x202c5e(%rip),%rdi        # 605508 <global_offset>
  4028aa:	e8 e9 fe ff ff       	callq  402798 <launch>
  4028af:	48 8b 05 4a 2c 20 00 	mov    0x202c4a(%rip),%rax        # 605500 <global_save_stack>
  4028b6:	48 89 c4             	mov    %rax,%rsp
  4028b9:	be 00 00 10 00       	mov    $0x100000,%esi
  4028be:	48 89 df             	mov    %rbx,%rdi
  4028c1:	e8 9a e7 ff ff       	callq  401060 <munmap@plt>
  4028c6:	5b                   	pop    %rbx
  4028c7:	c3                   	retq   
  4028c8:	be 00 00 10 00       	mov    $0x100000,%esi
  4028cd:	48 89 c7             	mov    %rax,%rdi
  4028d0:	e8 8b e7 ff ff       	callq  401060 <munmap@plt>
  4028d5:	b9 00 60 58 55       	mov    $0x55586000,%ecx
  4028da:	48 8d 15 7f 15 00 00 	lea    0x157f(%rip),%rdx        # 403e60 <_IO_stdin_used+0x700>
  4028e1:	be 01 00 00 00       	mov    $0x1,%esi
  4028e6:	48 8b 3d f3 2b 20 00 	mov    0x202bf3(%rip),%rdi        # 6054e0 <stderr@@GLIBC_2.2.5>
  4028ed:	b8 00 00 00 00       	mov    $0x0,%eax
  4028f2:	e8 e9 e7 ff ff       	callq  4010e0 <__fprintf_chk@plt>
  4028f7:	bf 01 00 00 00       	mov    $0x1,%edi
  4028fc:	e8 bf e7 ff ff       	callq  4010c0 <exit@plt>

0000000000402901 <rio_readinitb>:
  402901:	89 37                	mov    %esi,(%rdi)
  402903:	c7 47 04 00 00 00 00 	movl   $0x0,0x4(%rdi)
  40290a:	48 8d 47 10          	lea    0x10(%rdi),%rax
  40290e:	48 89 47 08          	mov    %rax,0x8(%rdi)
  402912:	c3                   	retq   

0000000000402913 <sigalrm_handler>:
  402913:	48 83 ec 08          	sub    $0x8,%rsp
  402917:	b9 00 00 00 00       	mov    $0x0,%ecx
  40291c:	48 8d 15 7d 15 00 00 	lea    0x157d(%rip),%rdx        # 403ea0 <trans_char+0x10>
  402923:	be 01 00 00 00       	mov    $0x1,%esi
  402928:	48 8b 3d b1 2b 20 00 	mov    0x202bb1(%rip),%rdi        # 6054e0 <stderr@@GLIBC_2.2.5>
  40292f:	b8 00 00 00 00       	mov    $0x0,%eax
  402934:	e8 a7 e7 ff ff       	callq  4010e0 <__fprintf_chk@plt>
  402939:	bf 01 00 00 00       	mov    $0x1,%edi
  40293e:	e8 7d e7 ff ff       	callq  4010c0 <exit@plt>

0000000000402943 <rio_writen>:
  402943:	41 55                	push   %r13
  402945:	41 54                	push   %r12
  402947:	55                   	push   %rbp
  402948:	53                   	push   %rbx
  402949:	48 83 ec 08          	sub    $0x8,%rsp
  40294d:	41 89 fc             	mov    %edi,%r12d
  402950:	49 89 d5             	mov    %rdx,%r13
  402953:	48 89 f5             	mov    %rsi,%rbp
  402956:	48 89 d3             	mov    %rdx,%rbx
  402959:	eb 06                	jmp    402961 <rio_writen+0x1e>
  40295b:	48 29 c3             	sub    %rax,%rbx
  40295e:	48 01 c5             	add    %rax,%rbp
  402961:	48 85 db             	test   %rbx,%rbx
  402964:	74 24                	je     40298a <rio_writen+0x47>
  402966:	48 89 da             	mov    %rbx,%rdx
  402969:	48 89 ee             	mov    %rbp,%rsi
  40296c:	44 89 e7             	mov    %r12d,%edi
  40296f:	e8 bc e5 ff ff       	callq  400f30 <write@plt>
  402974:	48 85 c0             	test   %rax,%rax
  402977:	7f e2                	jg     40295b <rio_writen+0x18>
  402979:	e8 62 e5 ff ff       	callq  400ee0 <__errno_location@plt>
  40297e:	83 38 04             	cmpl   $0x4,(%rax)
  402981:	75 15                	jne    402998 <rio_writen+0x55>
  402983:	b8 00 00 00 00       	mov    $0x0,%eax
  402988:	eb d1                	jmp    40295b <rio_writen+0x18>
  40298a:	4c 89 e8             	mov    %r13,%rax
  40298d:	48 83 c4 08          	add    $0x8,%rsp
  402991:	5b                   	pop    %rbx
  402992:	5d                   	pop    %rbp
  402993:	41 5c                	pop    %r12
  402995:	41 5d                	pop    %r13
  402997:	c3                   	retq   
  402998:	48 c7 c0 ff ff ff ff 	mov    $0xffffffffffffffff,%rax
  40299f:	eb ec                	jmp    40298d <rio_writen+0x4a>

00000000004029a1 <rio_read>:
  4029a1:	41 55                	push   %r13
  4029a3:	41 54                	push   %r12
  4029a5:	55                   	push   %rbp
  4029a6:	53                   	push   %rbx
  4029a7:	48 83 ec 08          	sub    $0x8,%rsp
  4029ab:	48 89 fb             	mov    %rdi,%rbx
  4029ae:	49 89 f5             	mov    %rsi,%r13
  4029b1:	49 89 d4             	mov    %rdx,%r12
  4029b4:	eb 0a                	jmp    4029c0 <rio_read+0x1f>
  4029b6:	e8 25 e5 ff ff       	callq  400ee0 <__errno_location@plt>
  4029bb:	83 38 04             	cmpl   $0x4,(%rax)
  4029be:	75 5c                	jne    402a1c <rio_read+0x7b>
  4029c0:	8b 6b 04             	mov    0x4(%rbx),%ebp
  4029c3:	85 ed                	test   %ebp,%ebp
  4029c5:	7f 24                	jg     4029eb <rio_read+0x4a>
  4029c7:	48 8d 6b 10          	lea    0x10(%rbx),%rbp
  4029cb:	8b 3b                	mov    (%rbx),%edi
  4029cd:	ba 00 20 00 00       	mov    $0x2000,%edx
  4029d2:	48 89 ee             	mov    %rbp,%rsi
  4029d5:	e8 c6 e5 ff ff       	callq  400fa0 <read@plt>
  4029da:	89 43 04             	mov    %eax,0x4(%rbx)
  4029dd:	85 c0                	test   %eax,%eax
  4029df:	78 d5                	js     4029b6 <rio_read+0x15>
  4029e1:	85 c0                	test   %eax,%eax
  4029e3:	74 40                	je     402a25 <rio_read+0x84>
  4029e5:	48 89 6b 08          	mov    %rbp,0x8(%rbx)
  4029e9:	eb d5                	jmp    4029c0 <rio_read+0x1f>
  4029eb:	89 e8                	mov    %ebp,%eax
  4029ed:	49 39 c4             	cmp    %rax,%r12
  4029f0:	77 03                	ja     4029f5 <rio_read+0x54>
  4029f2:	44 89 e5             	mov    %r12d,%ebp
  4029f5:	4c 63 e5             	movslq %ebp,%r12
  4029f8:	48 8b 73 08          	mov    0x8(%rbx),%rsi
  4029fc:	4c 89 e2             	mov    %r12,%rdx
  4029ff:	4c 89 ef             	mov    %r13,%rdi
  402a02:	e8 09 e6 ff ff       	callq  401010 <memcpy@plt>
  402a07:	4c 01 63 08          	add    %r12,0x8(%rbx)
  402a0b:	29 6b 04             	sub    %ebp,0x4(%rbx)
  402a0e:	4c 89 e0             	mov    %r12,%rax
  402a11:	48 83 c4 08          	add    $0x8,%rsp
  402a15:	5b                   	pop    %rbx
  402a16:	5d                   	pop    %rbp
  402a17:	41 5c                	pop    %r12
  402a19:	41 5d                	pop    %r13
  402a1b:	c3                   	retq   
  402a1c:	48 c7 c0 ff ff ff ff 	mov    $0xffffffffffffffff,%rax
  402a23:	eb ec                	jmp    402a11 <rio_read+0x70>
  402a25:	b8 00 00 00 00       	mov    $0x0,%eax
  402a2a:	eb e5                	jmp    402a11 <rio_read+0x70>

0000000000402a2c <rio_readlineb>:
  402a2c:	41 55                	push   %r13
  402a2e:	41 54                	push   %r12
  402a30:	55                   	push   %rbp
  402a31:	53                   	push   %rbx
  402a32:	48 83 ec 18          	sub    $0x18,%rsp
  402a36:	49 89 fd             	mov    %rdi,%r13
  402a39:	49 89 d4             	mov    %rdx,%r12
  402a3c:	64 48 8b 04 25 28 00 	mov    %fs:0x28,%rax
  402a43:	00 00 
  402a45:	48 89 44 24 08       	mov    %rax,0x8(%rsp)
  402a4a:	31 c0                	xor    %eax,%eax
  402a4c:	48 89 f5             	mov    %rsi,%rbp
  402a4f:	bb 01 00 00 00       	mov    $0x1,%ebx
  402a54:	4c 39 e3             	cmp    %r12,%rbx
  402a57:	73 47                	jae    402aa0 <rio_readlineb+0x74>
  402a59:	48 8d 74 24 07       	lea    0x7(%rsp),%rsi
  402a5e:	ba 01 00 00 00       	mov    $0x1,%edx
  402a63:	4c 89 ef             	mov    %r13,%rdi
  402a66:	e8 36 ff ff ff       	callq  4029a1 <rio_read>
  402a6b:	83 f8 01             	cmp    $0x1,%eax
  402a6e:	75 1c                	jne    402a8c <rio_readlineb+0x60>
  402a70:	48 8d 45 01          	lea    0x1(%rbp),%rax
  402a74:	0f b6 54 24 07       	movzbl 0x7(%rsp),%edx
  402a79:	88 55 00             	mov    %dl,0x0(%rbp)
  402a7c:	80 7c 24 07 0a       	cmpb   $0xa,0x7(%rsp)
  402a81:	74 1a                	je     402a9d <rio_readlineb+0x71>
  402a83:	48 83 c3 01          	add    $0x1,%rbx
  402a87:	48 89 c5             	mov    %rax,%rbp
  402a8a:	eb c8                	jmp    402a54 <rio_readlineb+0x28>
  402a8c:	85 c0                	test   %eax,%eax
  402a8e:	75 32                	jne    402ac2 <rio_readlineb+0x96>
  402a90:	48 83 fb 01          	cmp    $0x1,%rbx
  402a94:	75 0a                	jne    402aa0 <rio_readlineb+0x74>
  402a96:	b8 00 00 00 00       	mov    $0x0,%eax
  402a9b:	eb 0a                	jmp    402aa7 <rio_readlineb+0x7b>
  402a9d:	48 89 c5             	mov    %rax,%rbp
  402aa0:	c6 45 00 00          	movb   $0x0,0x0(%rbp)
  402aa4:	48 89 d8             	mov    %rbx,%rax
  402aa7:	48 8b 4c 24 08       	mov    0x8(%rsp),%rcx
  402aac:	64 48 33 0c 25 28 00 	xor    %fs:0x28,%rcx
  402ab3:	00 00 
  402ab5:	75 14                	jne    402acb <rio_readlineb+0x9f>
  402ab7:	48 83 c4 18          	add    $0x18,%rsp
  402abb:	5b                   	pop    %rbx
  402abc:	5d                   	pop    %rbp
  402abd:	41 5c                	pop    %r12
  402abf:	41 5d                	pop    %r13
  402ac1:	c3                   	retq   
  402ac2:	48 c7 c0 ff ff ff ff 	mov    $0xffffffffffffffff,%rax
  402ac9:	eb dc                	jmp    402aa7 <rio_readlineb+0x7b>
  402acb:	e8 70 e4 ff ff       	callq  400f40 <__stack_chk_fail@plt>

0000000000402ad0 <urlencode>:
  402ad0:	41 54                	push   %r12
  402ad2:	55                   	push   %rbp
  402ad3:	53                   	push   %rbx
  402ad4:	48 83 ec 10          	sub    $0x10,%rsp
  402ad8:	48 89 fb             	mov    %rdi,%rbx
  402adb:	48 89 f5             	mov    %rsi,%rbp
  402ade:	64 48 8b 04 25 28 00 	mov    %fs:0x28,%rax
  402ae5:	00 00 
  402ae7:	48 89 44 24 08       	mov    %rax,0x8(%rsp)
  402aec:	31 c0                	xor    %eax,%eax
  402aee:	48 c7 c1 ff ff ff ff 	mov    $0xffffffffffffffff,%rcx
  402af5:	f2 ae                	repnz scas %es:(%rdi),%al
  402af7:	48 f7 d1             	not    %rcx
  402afa:	8d 41 ff             	lea    -0x1(%rcx),%eax
  402afd:	eb 0f                	jmp    402b0e <urlencode+0x3e>
  402aff:	44 88 45 00          	mov    %r8b,0x0(%rbp)
  402b03:	48 8d 6d 01          	lea    0x1(%rbp),%rbp
  402b07:	48 83 c3 01          	add    $0x1,%rbx
  402b0b:	44 89 e0             	mov    %r12d,%eax
  402b0e:	44 8d 60 ff          	lea    -0x1(%rax),%r12d
  402b12:	85 c0                	test   %eax,%eax
  402b14:	0f 84 a8 00 00 00    	je     402bc2 <urlencode+0xf2>
  402b1a:	44 0f b6 03          	movzbl (%rbx),%r8d
  402b1e:	41 80 f8 2a          	cmp    $0x2a,%r8b
  402b22:	0f 94 c2             	sete   %dl
  402b25:	41 80 f8 2d          	cmp    $0x2d,%r8b
  402b29:	0f 94 c0             	sete   %al
  402b2c:	08 c2                	or     %al,%dl
  402b2e:	75 cf                	jne    402aff <urlencode+0x2f>
  402b30:	41 80 f8 2e          	cmp    $0x2e,%r8b
  402b34:	74 c9                	je     402aff <urlencode+0x2f>
  402b36:	41 80 f8 5f          	cmp    $0x5f,%r8b
  402b3a:	74 c3                	je     402aff <urlencode+0x2f>
  402b3c:	41 8d 40 d0          	lea    -0x30(%r8),%eax
  402b40:	3c 09                	cmp    $0x9,%al
  402b42:	76 bb                	jbe    402aff <urlencode+0x2f>
  402b44:	41 8d 40 bf          	lea    -0x41(%r8),%eax
  402b48:	3c 19                	cmp    $0x19,%al
  402b4a:	76 b3                	jbe    402aff <urlencode+0x2f>
  402b4c:	41 8d 40 9f          	lea    -0x61(%r8),%eax
  402b50:	3c 19                	cmp    $0x19,%al
  402b52:	76 ab                	jbe    402aff <urlencode+0x2f>
  402b54:	41 80 f8 20          	cmp    $0x20,%r8b
  402b58:	74 56                	je     402bb0 <urlencode+0xe0>
  402b5a:	41 8d 40 e0          	lea    -0x20(%r8),%eax
  402b5e:	3c 5f                	cmp    $0x5f,%al
  402b60:	0f 96 c2             	setbe  %dl
  402b63:	41 80 f8 09          	cmp    $0x9,%r8b
  402b67:	0f 94 c0             	sete   %al
  402b6a:	08 c2                	or     %al,%dl
  402b6c:	74 4f                	je     402bbd <urlencode+0xed>
  402b6e:	48 89 e7             	mov    %rsp,%rdi
  402b71:	45 0f b6 c0          	movzbl %r8b,%r8d
  402b75:	48 8d 0d bc 13 00 00 	lea    0x13bc(%rip),%rcx        # 403f38 <trans_char+0xa8>
  402b7c:	ba 08 00 00 00       	mov    $0x8,%edx
  402b81:	be 01 00 00 00       	mov    $0x1,%esi
  402b86:	b8 00 00 00 00       	mov    $0x0,%eax
  402b8b:	e8 60 e5 ff ff       	callq  4010f0 <__sprintf_chk@plt>
  402b90:	0f b6 04 24          	movzbl (%rsp),%eax
  402b94:	88 45 00             	mov    %al,0x0(%rbp)
  402b97:	0f b6 44 24 01       	movzbl 0x1(%rsp),%eax
  402b9c:	88 45 01             	mov    %al,0x1(%rbp)
  402b9f:	0f b6 44 24 02       	movzbl 0x2(%rsp),%eax
  402ba4:	88 45 02             	mov    %al,0x2(%rbp)
  402ba7:	48 8d 6d 03          	lea    0x3(%rbp),%rbp
  402bab:	e9 57 ff ff ff       	jmpq   402b07 <urlencode+0x37>
  402bb0:	c6 45 00 2b          	movb   $0x2b,0x0(%rbp)
  402bb4:	48 8d 6d 01          	lea    0x1(%rbp),%rbp
  402bb8:	e9 4a ff ff ff       	jmpq   402b07 <urlencode+0x37>
  402bbd:	b8 ff ff ff ff       	mov    $0xffffffff,%eax
  402bc2:	48 8b 74 24 08       	mov    0x8(%rsp),%rsi
  402bc7:	64 48 33 34 25 28 00 	xor    %fs:0x28,%rsi
  402bce:	00 00 
  402bd0:	75 09                	jne    402bdb <urlencode+0x10b>
  402bd2:	48 83 c4 10          	add    $0x10,%rsp
  402bd6:	5b                   	pop    %rbx
  402bd7:	5d                   	pop    %rbp
  402bd8:	41 5c                	pop    %r12
  402bda:	c3                   	retq   
  402bdb:	e8 60 e3 ff ff       	callq  400f40 <__stack_chk_fail@plt>

0000000000402be0 <submitr>:
  402be0:	41 57                	push   %r15
  402be2:	41 56                	push   %r14
  402be4:	41 55                	push   %r13
  402be6:	41 54                	push   %r12
  402be8:	55                   	push   %rbp
  402be9:	53                   	push   %rbx
  402bea:	48 81 ec 68 a0 00 00 	sub    $0xa068,%rsp
  402bf1:	49 89 fd             	mov    %rdi,%r13
  402bf4:	89 74 24 14          	mov    %esi,0x14(%rsp)
  402bf8:	49 89 d7             	mov    %rdx,%r15
  402bfb:	48 89 4c 24 08       	mov    %rcx,0x8(%rsp)
  402c00:	4c 89 44 24 18       	mov    %r8,0x18(%rsp)
  402c05:	4d 89 ce             	mov    %r9,%r14
  402c08:	48 8b 9c 24 a0 a0 00 	mov    0xa0a0(%rsp),%rbx
  402c0f:	00 
  402c10:	64 48 8b 04 25 28 00 	mov    %fs:0x28,%rax
  402c17:	00 00 
  402c19:	48 89 84 24 58 a0 00 	mov    %rax,0xa058(%rsp)
  402c20:	00 
  402c21:	31 c0                	xor    %eax,%eax
  402c23:	c7 44 24 2c 00 00 00 	movl   $0x0,0x2c(%rsp)
  402c2a:	00 
  402c2b:	ba 00 00 00 00       	mov    $0x0,%edx
  402c30:	be 01 00 00 00       	mov    $0x1,%esi
  402c35:	bf 02 00 00 00       	mov    $0x2,%edi
  402c3a:	e8 c1 e4 ff ff       	callq  401100 <socket@plt>
  402c3f:	85 c0                	test   %eax,%eax
  402c41:	0f 88 c8 01 00 00    	js     402e0f <submitr+0x22f>
  402c47:	89 c5                	mov    %eax,%ebp
  402c49:	4c 89 ef             	mov    %r13,%rdi
  402c4c:	e8 7f e3 ff ff       	callq  400fd0 <gethostbyname@plt>
  402c51:	48 85 c0             	test   %rax,%rax
  402c54:	0f 84 03 02 00 00    	je     402e5d <submitr+0x27d>
  402c5a:	4c 8d 64 24 30       	lea    0x30(%rsp),%r12
  402c5f:	48 c7 44 24 30 00 00 	movq   $0x0,0x30(%rsp)
  402c66:	00 00 
  402c68:	48 c7 44 24 38 00 00 	movq   $0x0,0x38(%rsp)
  402c6f:	00 00 
  402c71:	66 c7 44 24 30 02 00 	movw   $0x2,0x30(%rsp)
  402c78:	48 63 50 14          	movslq 0x14(%rax),%rdx
  402c7c:	48 8b 40 18          	mov    0x18(%rax),%rax
  402c80:	48 8b 30             	mov    (%rax),%rsi
  402c83:	48 8d 7c 24 34       	lea    0x34(%rsp),%rdi
  402c88:	b9 0c 00 00 00       	mov    $0xc,%ecx
  402c8d:	e8 4e e3 ff ff       	callq  400fe0 <__memmove_chk@plt>
  402c92:	0f b7 44 24 14       	movzwl 0x14(%rsp),%eax
  402c97:	66 c1 c8 08          	ror    $0x8,%ax
  402c9b:	66 89 44 24 32       	mov    %ax,0x32(%rsp)
  402ca0:	ba 10 00 00 00       	mov    $0x10,%edx
  402ca5:	4c 89 e6             	mov    %r12,%rsi
  402ca8:	89 ef                	mov    %ebp,%edi
  402caa:	e8 21 e4 ff ff       	callq  4010d0 <connect@plt>
  402caf:	85 c0                	test   %eax,%eax
  402cb1:	0f 88 0d 02 00 00    	js     402ec4 <submitr+0x2e4>
  402cb7:	48 c7 c6 ff ff ff ff 	mov    $0xffffffffffffffff,%rsi
  402cbe:	b8 00 00 00 00       	mov    $0x0,%eax
  402cc3:	48 89 f1             	mov    %rsi,%rcx
  402cc6:	4c 89 f7             	mov    %r14,%rdi
  402cc9:	f2 ae                	repnz scas %es:(%rdi),%al
  402ccb:	48 f7 d1             	not    %rcx
  402cce:	48 89 ca             	mov    %rcx,%rdx
  402cd1:	48 89 f1             	mov    %rsi,%rcx
  402cd4:	4c 89 ff             	mov    %r15,%rdi
  402cd7:	f2 ae                	repnz scas %es:(%rdi),%al
  402cd9:	48 f7 d1             	not    %rcx
  402cdc:	49 89 c8             	mov    %rcx,%r8
  402cdf:	48 89 f1             	mov    %rsi,%rcx
  402ce2:	48 8b 7c 24 08       	mov    0x8(%rsp),%rdi
  402ce7:	f2 ae                	repnz scas %es:(%rdi),%al
  402ce9:	48 f7 d1             	not    %rcx
  402cec:	4d 8d 44 08 fe       	lea    -0x2(%r8,%rcx,1),%r8
  402cf1:	48 89 f1             	mov    %rsi,%rcx
  402cf4:	48 8b 7c 24 18       	mov    0x18(%rsp),%rdi
  402cf9:	f2 ae                	repnz scas %es:(%rdi),%al
  402cfb:	48 89 c8             	mov    %rcx,%rax
  402cfe:	48 f7 d0             	not    %rax
  402d01:	49 8d 4c 00 ff       	lea    -0x1(%r8,%rax,1),%rcx
  402d06:	48 8d 44 52 fd       	lea    -0x3(%rdx,%rdx,2),%rax
  402d0b:	48 8d 84 01 80 00 00 	lea    0x80(%rcx,%rax,1),%rax
  402d12:	00 
  402d13:	48 3d 00 20 00 00    	cmp    $0x2000,%rax
  402d19:	0f 87 fe 01 00 00    	ja     402f1d <submitr+0x33d>
  402d1f:	48 8d b4 24 50 40 00 	lea    0x4050(%rsp),%rsi
  402d26:	00 
  402d27:	b9 00 04 00 00       	mov    $0x400,%ecx
  402d2c:	b8 00 00 00 00       	mov    $0x0,%eax
  402d31:	48 89 f7             	mov    %rsi,%rdi
  402d34:	f3 48 ab             	rep stos %rax,%es:(%rdi)
  402d37:	4c 89 f7             	mov    %r14,%rdi
  402d3a:	e8 91 fd ff ff       	callq  402ad0 <urlencode>
  402d3f:	85 c0                	test   %eax,%eax
  402d41:	0f 88 48 02 00 00    	js     402f8f <submitr+0x3af>
  402d47:	4c 8d a4 24 50 20 00 	lea    0x2050(%rsp),%r12
  402d4e:	00 
  402d4f:	41 55                	push   %r13
  402d51:	48 8d 84 24 58 40 00 	lea    0x4058(%rsp),%rax
  402d58:	00 
  402d59:	50                   	push   %rax
  402d5a:	4d 89 f9             	mov    %r15,%r9
  402d5d:	4c 8b 44 24 18       	mov    0x18(%rsp),%r8
  402d62:	48 8d 0d 5f 11 00 00 	lea    0x115f(%rip),%rcx        # 403ec8 <trans_char+0x38>
  402d69:	ba 00 20 00 00       	mov    $0x2000,%edx
  402d6e:	be 01 00 00 00       	mov    $0x1,%esi
  402d73:	4c 89 e7             	mov    %r12,%rdi
  402d76:	b8 00 00 00 00       	mov    $0x0,%eax
  402d7b:	e8 70 e3 ff ff       	callq  4010f0 <__sprintf_chk@plt>
  402d80:	b8 00 00 00 00       	mov    $0x0,%eax
  402d85:	48 c7 c1 ff ff ff ff 	mov    $0xffffffffffffffff,%rcx
  402d8c:	4c 89 e7             	mov    %r12,%rdi
  402d8f:	f2 ae                	repnz scas %es:(%rdi),%al
  402d91:	48 f7 d1             	not    %rcx
  402d94:	48 8d 51 ff          	lea    -0x1(%rcx),%rdx
  402d98:	4c 89 e6             	mov    %r12,%rsi
  402d9b:	89 ef                	mov    %ebp,%edi
  402d9d:	e8 a1 fb ff ff       	callq  402943 <rio_writen>
  402da2:	48 83 c4 10          	add    $0x10,%rsp
  402da6:	48 85 c0             	test   %rax,%rax
  402da9:	0f 88 6a 02 00 00    	js     403019 <submitr+0x439>
  402daf:	4c 8d 64 24 40       	lea    0x40(%rsp),%r12
  402db4:	89 ee                	mov    %ebp,%esi
  402db6:	4c 89 e7             	mov    %r12,%rdi
  402db9:	e8 43 fb ff ff       	callq  402901 <rio_readinitb>
  402dbe:	48 8d b4 24 50 20 00 	lea    0x2050(%rsp),%rsi
  402dc5:	00 
  402dc6:	ba 00 20 00 00       	mov    $0x2000,%edx
  402dcb:	4c 89 e7             	mov    %r12,%rdi
  402dce:	e8 59 fc ff ff       	callq  402a2c <rio_readlineb>
  402dd3:	48 85 c0             	test   %rax,%rax
  402dd6:	0f 8e ab 02 00 00    	jle    403087 <submitr+0x4a7>
  402ddc:	48 8d 4c 24 2c       	lea    0x2c(%rsp),%rcx
  402de1:	48 8d 94 24 50 60 00 	lea    0x6050(%rsp),%rdx
  402de8:	00 
  402de9:	48 8d bc 24 50 20 00 	lea    0x2050(%rsp),%rdi
  402df0:	00 
  402df1:	4c 8d 84 24 50 80 00 	lea    0x8050(%rsp),%r8
  402df8:	00 
  402df9:	48 8d 35 3f 11 00 00 	lea    0x113f(%rip),%rsi        # 403f3f <trans_char+0xaf>
  402e00:	b8 00 00 00 00       	mov    $0x0,%eax
  402e05:	e8 46 e2 ff ff       	callq  401050 <__isoc99_sscanf@plt>
  402e0a:	e9 b3 03 00 00       	jmpq   4031c2 <submitr+0x5e2>
  402e0f:	48 b8 45 72 72 6f 72 	movabs $0x43203a726f727245,%rax
  402e16:	3a 20 43 
  402e19:	48 89 03             	mov    %rax,(%rbx)
  402e1c:	48 b8 6c 69 65 6e 74 	movabs $0x6e7520746e65696c,%rax
  402e23:	20 75 6e 
  402e26:	48 89 43 08          	mov    %rax,0x8(%rbx)
  402e2a:	48 b8 61 62 6c 65 20 	movabs $0x206f7420656c6261,%rax
  402e31:	74 6f 20 
  402e34:	48 89 43 10          	mov    %rax,0x10(%rbx)
  402e38:	48 b8 63 72 65 61 74 	movabs $0x7320657461657263,%rax
  402e3f:	65 20 73 
  402e42:	48 89 43 18          	mov    %rax,0x18(%rbx)
  402e46:	c7 43 20 6f 63 6b 65 	movl   $0x656b636f,0x20(%rbx)
  402e4d:	66 c7 43 24 74 00    	movw   $0x74,0x24(%rbx)
  402e53:	b8 ff ff ff ff       	mov    $0xffffffff,%eax
  402e58:	e9 18 03 00 00       	jmpq   403175 <submitr+0x595>
  402e5d:	48 b8 45 72 72 6f 72 	movabs $0x44203a726f727245,%rax
  402e64:	3a 20 44 
  402e67:	48 89 03             	mov    %rax,(%rbx)
  402e6a:	48 b8 4e 53 20 69 73 	movabs $0x6e7520736920534e,%rax
  402e71:	20 75 6e 
  402e74:	48 89 43 08          	mov    %rax,0x8(%rbx)
  402e78:	48 b8 61 62 6c 65 20 	movabs $0x206f7420656c6261,%rax
  402e7f:	74 6f 20 
  402e82:	48 89 43 10          	mov    %rax,0x10(%rbx)
  402e86:	48 b8 72 65 73 6f 6c 	movabs $0x2065766c6f736572,%rax
  402e8d:	76 65 20 
  402e90:	48 89 43 18          	mov    %rax,0x18(%rbx)
  402e94:	48 b8 73 65 72 76 65 	movabs $0x6120726576726573,%rax
  402e9b:	72 20 61 
  402e9e:	48 89 43 20          	mov    %rax,0x20(%rbx)
  402ea2:	c7 43 28 64 64 72 65 	movl   $0x65726464,0x28(%rbx)
  402ea9:	66 c7 43 2c 73 73    	movw   $0x7373,0x2c(%rbx)
  402eaf:	c6 43 2e 00          	movb   $0x0,0x2e(%rbx)
  402eb3:	89 ef                	mov    %ebp,%edi
  402eb5:	e8 d6 e0 ff ff       	callq  400f90 <close@plt>
  402eba:	b8 ff ff ff ff       	mov    $0xffffffff,%eax
  402ebf:	e9 b1 02 00 00       	jmpq   403175 <submitr+0x595>
  402ec4:	48 b8 45 72 72 6f 72 	movabs $0x55203a726f727245,%rax
  402ecb:	3a 20 55 
  402ece:	48 89 03             	mov    %rax,(%rbx)
  402ed1:	48 b8 6e 61 62 6c 65 	movabs $0x6f7420656c62616e,%rax
  402ed8:	20 74 6f 
  402edb:	48 89 43 08          	mov    %rax,0x8(%rbx)
  402edf:	48 b8 20 63 6f 6e 6e 	movabs $0x7463656e6e6f6320,%rax
  402ee6:	65 63 74 
  402ee9:	48 89 43 10          	mov    %rax,0x10(%rbx)
  402eed:	48 b8 20 74 6f 20 74 	movabs $0x20656874206f7420,%rax
  402ef4:	68 65 20 
  402ef7:	48 89 43 18          	mov    %rax,0x18(%rbx)
  402efb:	c7 43 20 73 65 72 76 	movl   $0x76726573,0x20(%rbx)
  402f02:	66 c7 43 24 65 72    	movw   $0x7265,0x24(%rbx)
  402f08:	c6 43 26 00          	movb   $0x0,0x26(%rbx)
  402f0c:	89 ef                	mov    %ebp,%edi
  402f0e:	e8 7d e0 ff ff       	callq  400f90 <close@plt>
  402f13:	b8 ff ff ff ff       	mov    $0xffffffff,%eax
  402f18:	e9 58 02 00 00       	jmpq   403175 <submitr+0x595>
  402f1d:	48 b8 45 72 72 6f 72 	movabs $0x52203a726f727245,%rax
  402f24:	3a 20 52 
  402f27:	48 89 03             	mov    %rax,(%rbx)
  402f2a:	48 b8 65 73 75 6c 74 	movabs $0x747320746c757365,%rax
  402f31:	20 73 74 
  402f34:	48 89 43 08          	mov    %rax,0x8(%rbx)
  402f38:	48 b8 72 69 6e 67 20 	movabs $0x6f6f7420676e6972,%rax
  402f3f:	74 6f 6f 
  402f42:	48 89 43 10          	mov    %rax,0x10(%rbx)
  402f46:	48 b8 20 6c 61 72 67 	movabs $0x202e656772616c20,%rax
  402f4d:	65 2e 20 
  402f50:	48 89 43 18          	mov    %rax,0x18(%rbx)
  402f54:	48 b8 49 6e 63 72 65 	movabs $0x6573616572636e49,%rax
  402f5b:	61 73 65 
  402f5e:	48 89 43 20          	mov    %rax,0x20(%rbx)
  402f62:	48 b8 20 53 55 42 4d 	movabs $0x5254494d42555320,%rax
  402f69:	49 54 52 
  402f6c:	48 89 43 28          	mov    %rax,0x28(%rbx)
  402f70:	48 b8 5f 4d 41 58 42 	movabs $0x46554258414d5f,%rax
  402f77:	55 46 00 
  402f7a:	48 89 43 30          	mov    %rax,0x30(%rbx)
  402f7e:	89 ef                	mov    %ebp,%edi
  402f80:	e8 0b e0 ff ff       	callq  400f90 <close@plt>
  402f85:	b8 ff ff ff ff       	mov    $0xffffffff,%eax
  402f8a:	e9 e6 01 00 00       	jmpq   403175 <submitr+0x595>
  402f8f:	48 b8 45 72 72 6f 72 	movabs $0x52203a726f727245,%rax
  402f96:	3a 20 52 
  402f99:	48 89 03             	mov    %rax,(%rbx)
  402f9c:	48 b8 65 73 75 6c 74 	movabs $0x747320746c757365,%rax
  402fa3:	20 73 74 
  402fa6:	48 89 43 08          	mov    %rax,0x8(%rbx)
  402faa:	48 b8 72 69 6e 67 20 	movabs $0x6e6f6320676e6972,%rax
  402fb1:	63 6f 6e 
  402fb4:	48 89 43 10          	mov    %rax,0x10(%rbx)
  402fb8:	48 b8 74 61 69 6e 73 	movabs $0x6e6120736e696174,%rax
  402fbf:	20 61 6e 
  402fc2:	48 89 43 18          	mov    %rax,0x18(%rbx)
  402fc6:	48 b8 20 69 6c 6c 65 	movabs $0x6c6167656c6c6920,%rax
  402fcd:	67 61 6c 
  402fd0:	48 89 43 20          	mov    %rax,0x20(%rbx)
  402fd4:	48 b8 20 6f 72 20 75 	movabs $0x72706e7520726f20,%rax
  402fdb:	6e 70 72 
  402fde:	48 89 43 28          	mov    %rax,0x28(%rbx)
  402fe2:	48 b8 69 6e 74 61 62 	movabs $0x20656c6261746e69,%rax
  402fe9:	6c 65 20 
  402fec:	48 89 43 30          	mov    %rax,0x30(%rbx)
  402ff0:	48 b8 63 68 61 72 61 	movabs $0x6574636172616863,%rax
  402ff7:	63 74 65 
  402ffa:	48 89 43 38          	mov    %rax,0x38(%rbx)
  402ffe:	66 c7 43 40 72 2e    	movw   $0x2e72,0x40(%rbx)
  403004:	c6 43 42 00          	movb   $0x0,0x42(%rbx)
  403008:	89 ef                	mov    %ebp,%edi
  40300a:	e8 81 df ff ff       	callq  400f90 <close@plt>
  40300f:	b8 ff ff ff ff       	mov    $0xffffffff,%eax
  403014:	e9 5c 01 00 00       	jmpq   403175 <submitr+0x595>
  403019:	48 b8 45 72 72 6f 72 	movabs $0x43203a726f727245,%rax
  403020:	3a 20 43 
  403023:	48 89 03             	mov    %rax,(%rbx)
  403026:	48 b8 6c 69 65 6e 74 	movabs $0x6e7520746e65696c,%rax
  40302d:	20 75 6e 
  403030:	48 89 43 08          	mov    %rax,0x8(%rbx)
  403034:	48 b8 61 62 6c 65 20 	movabs $0x206f7420656c6261,%rax
  40303b:	74 6f 20 
  40303e:	48 89 43 10          	mov    %rax,0x10(%rbx)
  403042:	48 b8 77 72 69 74 65 	movabs $0x6f74206574697277,%rax
  403049:	20 74 6f 
  40304c:	48 89 43 18          	mov    %rax,0x18(%rbx)
  403050:	48 b8 20 74 68 65 20 	movabs $0x7365722065687420,%rax
  403057:	72 65 73 
  40305a:	48 89 43 20          	mov    %rax,0x20(%rbx)
  40305e:	48 b8 75 6c 74 20 73 	movabs $0x7672657320746c75,%rax
  403065:	65 72 76 
  403068:	48 89 43 28          	mov    %rax,0x28(%rbx)
  40306c:	66 c7 43 30 65 72    	movw   $0x7265,0x30(%rbx)
  403072:	c6 43 32 00          	movb   $0x0,0x32(%rbx)
  403076:	89 ef                	mov    %ebp,%edi
  403078:	e8 13 df ff ff       	callq  400f90 <close@plt>
  40307d:	b8 ff ff ff ff       	mov    $0xffffffff,%eax
  403082:	e9 ee 00 00 00       	jmpq   403175 <submitr+0x595>
  403087:	48 b8 45 72 72 6f 72 	movabs $0x43203a726f727245,%rax
  40308e:	3a 20 43 
  403091:	48 89 03             	mov    %rax,(%rbx)
  403094:	48 b8 6c 69 65 6e 74 	movabs $0x6e7520746e65696c,%rax
  40309b:	20 75 6e 
  40309e:	48 89 43 08          	mov    %rax,0x8(%rbx)
  4030a2:	48 b8 61 62 6c 65 20 	movabs $0x206f7420656c6261,%rax
  4030a9:	74 6f 20 
  4030ac:	48 89 43 10          	mov    %rax,0x10(%rbx)
  4030b0:	48 b8 72 65 61 64 20 	movabs $0x7269662064616572,%rax
  4030b7:	66 69 72 
  4030ba:	48 89 43 18          	mov    %rax,0x18(%rbx)
  4030be:	48 b8 73 74 20 68 65 	movabs $0x6564616568207473,%rax
  4030c5:	61 64 65 
  4030c8:	48 89 43 20          	mov    %rax,0x20(%rbx)
  4030cc:	48 b8 72 20 66 72 6f 	movabs $0x72206d6f72662072,%rax
  4030d3:	6d 20 72 
  4030d6:	48 89 43 28          	mov    %rax,0x28(%rbx)
  4030da:	48 b8 65 73 75 6c 74 	movabs $0x657320746c757365,%rax
  4030e1:	20 73 65 
  4030e4:	48 89 43 30          	mov    %rax,0x30(%rbx)
  4030e8:	c7 43 38 72 76 65 72 	movl   $0x72657672,0x38(%rbx)
  4030ef:	c6 43 3c 00          	movb   $0x0,0x3c(%rbx)
  4030f3:	89 ef                	mov    %ebp,%edi
  4030f5:	e8 96 de ff ff       	callq  400f90 <close@plt>
  4030fa:	b8 ff ff ff ff       	mov    $0xffffffff,%eax
  4030ff:	eb 74                	jmp    403175 <submitr+0x595>
  403101:	48 b8 45 72 72 6f 72 	movabs $0x43203a726f727245,%rax
  403108:	3a 20 43 
  40310b:	48 89 03             	mov    %rax,(%rbx)
  40310e:	48 b8 6c 69 65 6e 74 	movabs $0x6e7520746e65696c,%rax
  403115:	20 75 6e 
  403118:	48 89 43 08          	mov    %rax,0x8(%rbx)
  40311c:	48 b8 61 62 6c 65 20 	movabs $0x206f7420656c6261,%rax
  403123:	74 6f 20 
  403126:	48 89 43 10          	mov    %rax,0x10(%rbx)
  40312a:	48 b8 72 65 61 64 20 	movabs $0x6165682064616572,%rax
  403131:	68 65 61 
  403134:	48 89 43 18          	mov    %rax,0x18(%rbx)
  403138:	48 b8 64 65 72 73 20 	movabs $0x6f72662073726564,%rax
  40313f:	66 72 6f 
  403142:	48 89 43 20          	mov    %rax,0x20(%rbx)
  403146:	48 b8 6d 20 74 68 65 	movabs $0x657220656874206d,%rax
  40314d:	20 72 65 
  403150:	48 89 43 28          	mov    %rax,0x28(%rbx)
  403154:	48 b8 73 75 6c 74 20 	movabs $0x72657320746c7573,%rax
  40315b:	73 65 72 
  40315e:	48 89 43 30          	mov    %rax,0x30(%rbx)
  403162:	c7 43 38 76 65 72 00 	movl   $0x726576,0x38(%rbx)
  403169:	89 ef                	mov    %ebp,%edi
  40316b:	e8 20 de ff ff       	callq  400f90 <close@plt>
  403170:	b8 ff ff ff ff       	mov    $0xffffffff,%eax
  403175:	48 8b 9c 24 58 a0 00 	mov    0xa058(%rsp),%rbx
  40317c:	00 
  40317d:	64 48 33 1c 25 28 00 	xor    %fs:0x28,%rbx
  403184:	00 00 
  403186:	0f 85 fb 01 00 00    	jne    403387 <submitr+0x7a7>
  40318c:	48 81 c4 68 a0 00 00 	add    $0xa068,%rsp
  403193:	5b                   	pop    %rbx
  403194:	5d                   	pop    %rbp
  403195:	41 5c                	pop    %r12
  403197:	41 5d                	pop    %r13
  403199:	41 5e                	pop    %r14
  40319b:	41 5f                	pop    %r15
  40319d:	c3                   	retq   
  40319e:	85 c0                	test   %eax,%eax
  4031a0:	74 4e                	je     4031f0 <submitr+0x610>
  4031a2:	48 8d b4 24 50 20 00 	lea    0x2050(%rsp),%rsi
  4031a9:	00 
  4031aa:	48 8d 7c 24 40       	lea    0x40(%rsp),%rdi
  4031af:	ba 00 20 00 00       	mov    $0x2000,%edx
  4031b4:	e8 73 f8 ff ff       	callq  402a2c <rio_readlineb>
  4031b9:	48 85 c0             	test   %rax,%rax
  4031bc:	0f 8e 3f ff ff ff    	jle    403101 <submitr+0x521>
  4031c2:	0f b6 94 24 50 20 00 	movzbl 0x2050(%rsp),%edx
  4031c9:	00 
  4031ca:	b8 0d 00 00 00       	mov    $0xd,%eax
  4031cf:	29 d0                	sub    %edx,%eax
  4031d1:	75 cb                	jne    40319e <submitr+0x5be>
  4031d3:	0f b6 94 24 51 20 00 	movzbl 0x2051(%rsp),%edx
  4031da:	00 
  4031db:	b8 0a 00 00 00       	mov    $0xa,%eax
  4031e0:	29 d0                	sub    %edx,%eax
  4031e2:	75 ba                	jne    40319e <submitr+0x5be>
  4031e4:	0f b6 84 24 52 20 00 	movzbl 0x2052(%rsp),%eax
  4031eb:	00 
  4031ec:	f7 d8                	neg    %eax
  4031ee:	eb ae                	jmp    40319e <submitr+0x5be>
  4031f0:	48 8d b4 24 50 20 00 	lea    0x2050(%rsp),%rsi
  4031f7:	00 
  4031f8:	48 8d 7c 24 40       	lea    0x40(%rsp),%rdi
  4031fd:	ba 00 20 00 00       	mov    $0x2000,%edx
  403202:	e8 25 f8 ff ff       	callq  402a2c <rio_readlineb>
  403207:	48 85 c0             	test   %rax,%rax
  40320a:	7e 66                	jle    403272 <submitr+0x692>
  40320c:	44 8b 44 24 2c       	mov    0x2c(%rsp),%r8d
  403211:	41 81 f8 c8 00 00 00 	cmp    $0xc8,%r8d
  403218:	0f 85 d7 00 00 00    	jne    4032f5 <submitr+0x715>
  40321e:	48 8d b4 24 50 20 00 	lea    0x2050(%rsp),%rsi
  403225:	00 
  403226:	48 89 df             	mov    %rbx,%rdi
  403229:	e8 e2 dc ff ff       	callq  400f10 <strcpy@plt>
  40322e:	89 ef                	mov    %ebp,%edi
  403230:	e8 5b dd ff ff       	callq  400f90 <close@plt>
  403235:	0f b6 03             	movzbl (%rbx),%eax
  403238:	ba 4f 00 00 00       	mov    $0x4f,%edx
  40323d:	29 c2                	sub    %eax,%edx
  40323f:	0f 85 e9 00 00 00    	jne    40332e <submitr+0x74e>
  403245:	0f b6 4b 01          	movzbl 0x1(%rbx),%ecx
  403249:	b8 4b 00 00 00       	mov    $0x4b,%eax
  40324e:	29 c8                	sub    %ecx,%eax
  403250:	0f 85 da 00 00 00    	jne    403330 <submitr+0x750>
  403256:	0f b6 4b 02          	movzbl 0x2(%rbx),%ecx
  40325a:	b8 0a 00 00 00       	mov    $0xa,%eax
  40325f:	29 c8                	sub    %ecx,%eax
  403261:	0f 85 c9 00 00 00    	jne    403330 <submitr+0x750>
  403267:	0f b6 43 03          	movzbl 0x3(%rbx),%eax
  40326b:	f7 d8                	neg    %eax
  40326d:	e9 be 00 00 00       	jmpq   403330 <submitr+0x750>
  403272:	48 b8 45 72 72 6f 72 	movabs $0x43203a726f727245,%rax
  403279:	3a 20 43 
  40327c:	48 89 03             	mov    %rax,(%rbx)
  40327f:	48 b8 6c 69 65 6e 74 	movabs $0x6e7520746e65696c,%rax
  403286:	20 75 6e 
  403289:	48 89 43 08          	mov    %rax,0x8(%rbx)
  40328d:	48 b8 61 62 6c 65 20 	movabs $0x206f7420656c6261,%rax
  403294:	74 6f 20 
  403297:	48 89 43 10          	mov    %rax,0x10(%rbx)
  40329b:	48 b8 72 65 61 64 20 	movabs $0x6174732064616572,%rax
  4032a2:	73 74 61 
  4032a5:	48 89 43 18          	mov    %rax,0x18(%rbx)
  4032a9:	48 b8 74 75 73 20 6d 	movabs $0x7373656d20737574,%rax
  4032b0:	65 73 73 
  4032b3:	48 89 43 20          	mov    %rax,0x20(%rbx)
  4032b7:	48 b8 61 67 65 20 66 	movabs $0x6d6f726620656761,%rax
  4032be:	72 6f 6d 
  4032c1:	48 89 43 28          	mov    %rax,0x28(%rbx)
  4032c5:	48 b8 20 72 65 73 75 	movabs $0x20746c7573657220,%rax
  4032cc:	6c 74 20 
  4032cf:	48 89 43 30          	mov    %rax,0x30(%rbx)
  4032d3:	c7 43 38 73 65 72 76 	movl   $0x76726573,0x38(%rbx)
  4032da:	66 c7 43 3c 65 72    	movw   $0x7265,0x3c(%rbx)
  4032e0:	c6 43 3e 00          	movb   $0x0,0x3e(%rbx)
  4032e4:	89 ef                	mov    %ebp,%edi
  4032e6:	e8 a5 dc ff ff       	callq  400f90 <close@plt>
  4032eb:	b8 ff ff ff ff       	mov    $0xffffffff,%eax
  4032f0:	e9 80 fe ff ff       	jmpq   403175 <submitr+0x595>
  4032f5:	4c 8d 8c 24 50 80 00 	lea    0x8050(%rsp),%r9
  4032fc:	00 
  4032fd:	48 8d 0d 04 0c 00 00 	lea    0xc04(%rip),%rcx        # 403f08 <trans_char+0x78>
  403304:	48 c7 c2 ff ff ff ff 	mov    $0xffffffffffffffff,%rdx
  40330b:	be 01 00 00 00       	mov    $0x1,%esi
  403310:	48 89 df             	mov    %rbx,%rdi
  403313:	b8 00 00 00 00       	mov    $0x0,%eax
  403318:	e8 d3 dd ff ff       	callq  4010f0 <__sprintf_chk@plt>
  40331d:	89 ef                	mov    %ebp,%edi
  40331f:	e8 6c dc ff ff       	callq  400f90 <close@plt>
  403324:	b8 ff ff ff ff       	mov    $0xffffffff,%eax
  403329:	e9 47 fe ff ff       	jmpq   403175 <submitr+0x595>
  40332e:	89 d0                	mov    %edx,%eax
  403330:	f7 d8                	neg    %eax
  403332:	0f 84 3d fe ff ff    	je     403175 <submitr+0x595>
  403338:	b9 05 00 00 00       	mov    $0x5,%ecx
  40333d:	48 8d 3d 0c 0c 00 00 	lea    0xc0c(%rip),%rdi        # 403f50 <trans_char+0xc0>
  403344:	48 89 de             	mov    %rbx,%rsi
  403347:	f3 a6                	repz cmpsb %es:(%rdi),%ds:(%rsi)
  403349:	0f 97 c0             	seta   %al
  40334c:	0f 92 c1             	setb   %cl
  40334f:	29 c8                	sub    %ecx,%eax
  403351:	0f be c0             	movsbl %al,%eax
  403354:	85 c0                	test   %eax,%eax
  403356:	0f 84 19 fe ff ff    	je     403175 <submitr+0x595>
  40335c:	85 d2                	test   %edx,%edx
  40335e:	75 13                	jne    403373 <submitr+0x793>
  403360:	0f b6 43 01          	movzbl 0x1(%rbx),%eax
  403364:	ba 4b 00 00 00       	mov    $0x4b,%edx
  403369:	29 c2                	sub    %eax,%edx
  40336b:	75 06                	jne    403373 <submitr+0x793>
  40336d:	0f b6 53 02          	movzbl 0x2(%rbx),%edx
  403371:	f7 da                	neg    %edx
  403373:	89 d0                	mov    %edx,%eax
  403375:	f7 d8                	neg    %eax
  403377:	0f 84 f8 fd ff ff    	je     403175 <submitr+0x595>
  40337d:	b8 ff ff ff ff       	mov    $0xffffffff,%eax
  403382:	e9 ee fd ff ff       	jmpq   403175 <submitr+0x595>
  403387:	e8 b4 db ff ff       	callq  400f40 <__stack_chk_fail@plt>

000000000040338c <init_timeout>:
  40338c:	85 ff                	test   %edi,%edi
  40338e:	74 20                	je     4033b0 <init_timeout+0x24>
  403390:	53                   	push   %rbx
  403391:	89 fb                	mov    %edi,%ebx
  403393:	85 ff                	test   %edi,%edi
  403395:	78 1b                	js     4033b2 <init_timeout+0x26>
  403397:	48 8d 35 75 f5 ff ff 	lea    -0xa8b(%rip),%rsi        # 402913 <sigalrm_handler>
  40339e:	bf 0e 00 00 00       	mov    $0xe,%edi
  4033a3:	e8 18 dc ff ff       	callq  400fc0 <signal@plt>
  4033a8:	89 df                	mov    %ebx,%edi
  4033aa:	e8 d1 db ff ff       	callq  400f80 <alarm@plt>
  4033af:	5b                   	pop    %rbx
  4033b0:	f3 c3                	repz retq 
  4033b2:	bb 00 00 00 00       	mov    $0x0,%ebx
  4033b7:	eb de                	jmp    403397 <init_timeout+0xb>

00000000004033b9 <init_driver>:
  4033b9:	41 54                	push   %r12
  4033bb:	55                   	push   %rbp
  4033bc:	53                   	push   %rbx
  4033bd:	48 83 ec 20          	sub    $0x20,%rsp
  4033c1:	48 89 fd             	mov    %rdi,%rbp
  4033c4:	64 48 8b 04 25 28 00 	mov    %fs:0x28,%rax
  4033cb:	00 00 
  4033cd:	48 89 44 24 18       	mov    %rax,0x18(%rsp)
  4033d2:	31 c0                	xor    %eax,%eax
  4033d4:	be 01 00 00 00       	mov    $0x1,%esi
  4033d9:	bf 0d 00 00 00       	mov    $0xd,%edi
  4033de:	e8 dd db ff ff       	callq  400fc0 <signal@plt>
  4033e3:	be 01 00 00 00       	mov    $0x1,%esi
  4033e8:	bf 1d 00 00 00       	mov    $0x1d,%edi
  4033ed:	e8 ce db ff ff       	callq  400fc0 <signal@plt>
  4033f2:	be 01 00 00 00       	mov    $0x1,%esi
  4033f7:	bf 1d 00 00 00       	mov    $0x1d,%edi
  4033fc:	e8 bf db ff ff       	callq  400fc0 <signal@plt>
  403401:	ba 00 00 00 00       	mov    $0x0,%edx
  403406:	be 01 00 00 00       	mov    $0x1,%esi
  40340b:	bf 02 00 00 00       	mov    $0x2,%edi
  403410:	e8 eb dc ff ff       	callq  401100 <socket@plt>
  403415:	85 c0                	test   %eax,%eax
  403417:	0f 88 99 00 00 00    	js     4034b6 <init_driver+0xfd>
  40341d:	89 c3                	mov    %eax,%ebx
  40341f:	48 8d 3d 2f 0b 00 00 	lea    0xb2f(%rip),%rdi        # 403f55 <trans_char+0xc5>
  403426:	e8 a5 db ff ff       	callq  400fd0 <gethostbyname@plt>
  40342b:	48 85 c0             	test   %rax,%rax
  40342e:	0f 84 ce 00 00 00    	je     403502 <init_driver+0x149>
  403434:	48 c7 04 24 00 00 00 	movq   $0x0,(%rsp)
  40343b:	00 
  40343c:	48 c7 44 24 08 00 00 	movq   $0x0,0x8(%rsp)
  403443:	00 00 
  403445:	66 c7 04 24 02 00    	movw   $0x2,(%rsp)
  40344b:	48 63 50 14          	movslq 0x14(%rax),%rdx
  40344f:	48 8b 40 18          	mov    0x18(%rax),%rax
  403453:	48 8b 30             	mov    (%rax),%rsi
  403456:	48 8d 7c 24 04       	lea    0x4(%rsp),%rdi
  40345b:	b9 0c 00 00 00       	mov    $0xc,%ecx
  403460:	e8 7b db ff ff       	callq  400fe0 <__memmove_chk@plt>
  403465:	66 c7 44 24 02 3c 9a 	movw   $0x9a3c,0x2(%rsp)
  40346c:	ba 10 00 00 00       	mov    $0x10,%edx
  403471:	48 89 e6             	mov    %rsp,%rsi
  403474:	89 df                	mov    %ebx,%edi
  403476:	e8 55 dc ff ff       	callq  4010d0 <connect@plt>
  40347b:	85 c0                	test   %eax,%eax
  40347d:	0f 88 e7 00 00 00    	js     40356a <init_driver+0x1b1>
  403483:	89 df                	mov    %ebx,%edi
  403485:	e8 06 db ff ff       	callq  400f90 <close@plt>
  40348a:	66 c7 45 00 4f 4b    	movw   $0x4b4f,0x0(%rbp)
  403490:	c6 45 02 00          	movb   $0x0,0x2(%rbp)
  403494:	b8 00 00 00 00       	mov    $0x0,%eax
  403499:	48 8b 4c 24 18       	mov    0x18(%rsp),%rcx
  40349e:	64 48 33 0c 25 28 00 	xor    %fs:0x28,%rcx
  4034a5:	00 00 
  4034a7:	0f 85 10 01 00 00    	jne    4035bd <init_driver+0x204>
  4034ad:	48 83 c4 20          	add    $0x20,%rsp
  4034b1:	5b                   	pop    %rbx
  4034b2:	5d                   	pop    %rbp
  4034b3:	41 5c                	pop    %r12
  4034b5:	c3                   	retq   
  4034b6:	48 b8 45 72 72 6f 72 	movabs $0x43203a726f727245,%rax
  4034bd:	3a 20 43 
  4034c0:	48 89 45 00          	mov    %rax,0x0(%rbp)
  4034c4:	48 b8 6c 69 65 6e 74 	movabs $0x6e7520746e65696c,%rax
  4034cb:	20 75 6e 
  4034ce:	48 89 45 08          	mov    %rax,0x8(%rbp)
  4034d2:	48 b8 61 62 6c 65 20 	movabs $0x206f7420656c6261,%rax
  4034d9:	74 6f 20 
  4034dc:	48 89 45 10          	mov    %rax,0x10(%rbp)
  4034e0:	48 b8 63 72 65 61 74 	movabs $0x7320657461657263,%rax
  4034e7:	65 20 73 
  4034ea:	48 89 45 18          	mov    %rax,0x18(%rbp)
  4034ee:	c7 45 20 6f 63 6b 65 	movl   $0x656b636f,0x20(%rbp)
  4034f5:	66 c7 45 24 74 00    	movw   $0x74,0x24(%rbp)
  4034fb:	b8 ff ff ff ff       	mov    $0xffffffff,%eax
  403500:	eb 97                	jmp    403499 <init_driver+0xe0>
  403502:	48 b8 45 72 72 6f 72 	movabs $0x44203a726f727245,%rax
  403509:	3a 20 44 
  40350c:	48 89 45 00          	mov    %rax,0x0(%rbp)
  403510:	48 b8 4e 53 20 69 73 	movabs $0x6e7520736920534e,%rax
  403517:	20 75 6e 
  40351a:	48 89 45 08          	mov    %rax,0x8(%rbp)
  40351e:	48 b8 61 62 6c 65 20 	movabs $0x206f7420656c6261,%rax
  403525:	74 6f 20 
  403528:	48 89 45 10          	mov    %rax,0x10(%rbp)
  40352c:	48 b8 72 65 73 6f 6c 	movabs $0x2065766c6f736572,%rax
  403533:	76 65 20 
  403536:	48 89 45 18          	mov    %rax,0x18(%rbp)
  40353a:	48 b8 73 65 72 76 65 	movabs $0x6120726576726573,%rax
  403541:	72 20 61 
  403544:	48 89 45 20          	mov    %rax,0x20(%rbp)
  403548:	c7 45 28 64 64 72 65 	movl   $0x65726464,0x28(%rbp)
  40354f:	66 c7 45 2c 73 73    	movw   $0x7373,0x2c(%rbp)
  403555:	c6 45 2e 00          	movb   $0x0,0x2e(%rbp)
  403559:	89 df                	mov    %ebx,%edi
  40355b:	e8 30 da ff ff       	callq  400f90 <close@plt>
  403560:	b8 ff ff ff ff       	mov    $0xffffffff,%eax
  403565:	e9 2f ff ff ff       	jmpq   403499 <init_driver+0xe0>
  40356a:	48 b8 45 72 72 6f 72 	movabs $0x55203a726f727245,%rax
  403571:	3a 20 55 
  403574:	48 89 45 00          	mov    %rax,0x0(%rbp)
  403578:	48 b8 6e 61 62 6c 65 	movabs $0x6f7420656c62616e,%rax
  40357f:	20 74 6f 
  403582:	48 89 45 08          	mov    %rax,0x8(%rbp)
  403586:	48 b8 20 63 6f 6e 6e 	movabs $0x7463656e6e6f6320,%rax
  40358d:	65 63 74 
  403590:	48 89 45 10          	mov    %rax,0x10(%rbp)
  403594:	48 b8 20 74 6f 20 73 	movabs $0x76726573206f7420,%rax
  40359b:	65 72 76 
  40359e:	48 89 45 18          	mov    %rax,0x18(%rbp)
  4035a2:	66 c7 45 20 65 72    	movw   $0x7265,0x20(%rbp)
  4035a8:	c6 45 22 00          	movb   $0x0,0x22(%rbp)
  4035ac:	89 df                	mov    %ebx,%edi
  4035ae:	e8 dd d9 ff ff       	callq  400f90 <close@plt>
  4035b3:	b8 ff ff ff ff       	mov    $0xffffffff,%eax
  4035b8:	e9 dc fe ff ff       	jmpq   403499 <init_driver+0xe0>
  4035bd:	e8 7e d9 ff ff       	callq  400f40 <__stack_chk_fail@plt>

00000000004035c2 <driver_post>:
  4035c2:	53                   	push   %rbx
  4035c3:	4c 89 cb             	mov    %r9,%rbx
  4035c6:	45 85 c0             	test   %r8d,%r8d
  4035c9:	75 18                	jne    4035e3 <driver_post+0x21>
  4035cb:	48 85 ff             	test   %rdi,%rdi
  4035ce:	74 05                	je     4035d5 <driver_post+0x13>
  4035d0:	80 3f 00             	cmpb   $0x0,(%rdi)
  4035d3:	75 37                	jne    40360c <driver_post+0x4a>
  4035d5:	66 c7 03 4f 4b       	movw   $0x4b4f,(%rbx)
  4035da:	c6 43 02 00          	movb   $0x0,0x2(%rbx)
  4035de:	44 89 c0             	mov    %r8d,%eax
  4035e1:	5b                   	pop    %rbx
  4035e2:	c3                   	retq   
  4035e3:	48 89 ca             	mov    %rcx,%rdx
  4035e6:	48 8d 35 80 09 00 00 	lea    0x980(%rip),%rsi        # 403f6d <trans_char+0xdd>
  4035ed:	bf 01 00 00 00       	mov    $0x1,%edi
  4035f2:	b8 00 00 00 00       	mov    $0x0,%eax
  4035f7:	e8 74 da ff ff       	callq  401070 <__printf_chk@plt>
  4035fc:	66 c7 03 4f 4b       	movw   $0x4b4f,(%rbx)
  403601:	c6 43 02 00          	movb   $0x0,0x2(%rbx)
  403605:	b8 00 00 00 00       	mov    $0x0,%eax
  40360a:	eb d5                	jmp    4035e1 <driver_post+0x1f>
  40360c:	48 83 ec 08          	sub    $0x8,%rsp
  403610:	41 51                	push   %r9
  403612:	49 89 c9             	mov    %rcx,%r9
  403615:	49 89 d0             	mov    %rdx,%r8
  403618:	48 89 f9             	mov    %rdi,%rcx
  40361b:	48 89 f2             	mov    %rsi,%rdx
  40361e:	be 9a 3c 00 00       	mov    $0x3c9a,%esi
  403623:	48 8d 3d 2b 09 00 00 	lea    0x92b(%rip),%rdi        # 403f55 <trans_char+0xc5>
  40362a:	e8 b1 f5 ff ff       	callq  402be0 <submitr>
  40362f:	48 83 c4 10          	add    $0x10,%rsp
  403633:	eb ac                	jmp    4035e1 <driver_post+0x1f>

0000000000403635 <check>:
  403635:	89 f8                	mov    %edi,%eax
  403637:	c1 e8 1c             	shr    $0x1c,%eax
  40363a:	85 c0                	test   %eax,%eax
  40363c:	74 1d                	je     40365b <check+0x26>
  40363e:	b9 00 00 00 00       	mov    $0x0,%ecx
  403643:	83 f9 1f             	cmp    $0x1f,%ecx
  403646:	7f 0d                	jg     403655 <check+0x20>
  403648:	89 f8                	mov    %edi,%eax
  40364a:	d3 e8                	shr    %cl,%eax
  40364c:	3c 0a                	cmp    $0xa,%al
  40364e:	74 11                	je     403661 <check+0x2c>
  403650:	83 c1 08             	add    $0x8,%ecx
  403653:	eb ee                	jmp    403643 <check+0xe>
  403655:	b8 01 00 00 00       	mov    $0x1,%eax
  40365a:	c3                   	retq   
  40365b:	b8 00 00 00 00       	mov    $0x0,%eax
  403660:	c3                   	retq   
  403661:	b8 00 00 00 00       	mov    $0x0,%eax
  403666:	c3                   	retq   

0000000000403667 <gencookie>:
  403667:	53                   	push   %rbx
  403668:	83 c7 01             	add    $0x1,%edi
  40366b:	e8 80 d8 ff ff       	callq  400ef0 <srandom@plt>
  403670:	e8 bb d9 ff ff       	callq  401030 <random@plt>
  403675:	89 c3                	mov    %eax,%ebx
  403677:	89 c7                	mov    %eax,%edi
  403679:	e8 b7 ff ff ff       	callq  403635 <check>
  40367e:	85 c0                	test   %eax,%eax
  403680:	74 ee                	je     403670 <gencookie+0x9>
  403682:	89 d8                	mov    %ebx,%eax
  403684:	5b                   	pop    %rbx
  403685:	c3                   	retq   
  403686:	66 2e 0f 1f 84 00 00 	nopw   %cs:0x0(%rax,%rax,1)
  40368d:	00 00 00 

0000000000403690 <__libc_csu_init>:
  403690:	41 57                	push   %r15
  403692:	41 56                	push   %r14
  403694:	41 89 ff             	mov    %edi,%r15d
  403697:	41 55                	push   %r13
  403699:	41 54                	push   %r12
  40369b:	4c 8d 25 86 17 20 00 	lea    0x201786(%rip),%r12        # 604e28 <__CTOR_LIST__>
  4036a2:	55                   	push   %rbp
  4036a3:	48 8d 2d 7e 17 20 00 	lea    0x20177e(%rip),%rbp        # 604e28 <__CTOR_LIST__>
  4036aa:	53                   	push   %rbx
  4036ab:	49 89 f6             	mov    %rsi,%r14
  4036ae:	49 89 d5             	mov    %rdx,%r13
  4036b1:	4c 29 e5             	sub    %r12,%rbp
  4036b4:	48 83 ec 08          	sub    $0x8,%rsp
  4036b8:	48 c1 fd 03          	sar    $0x3,%rbp
  4036bc:	e8 d7 d7 ff ff       	callq  400e98 <_init>
  4036c1:	48 85 ed             	test   %rbp,%rbp
  4036c4:	74 20                	je     4036e6 <__libc_csu_init+0x56>
  4036c6:	31 db                	xor    %ebx,%ebx
  4036c8:	0f 1f 84 00 00 00 00 	nopl   0x0(%rax,%rax,1)
  4036cf:	00 
  4036d0:	4c 89 ea             	mov    %r13,%rdx
  4036d3:	4c 89 f6             	mov    %r14,%rsi
  4036d6:	44 89 ff             	mov    %r15d,%edi
  4036d9:	41 ff 14 dc          	callq  *(%r12,%rbx,8)
  4036dd:	48 83 c3 01          	add    $0x1,%rbx
  4036e1:	48 39 eb             	cmp    %rbp,%rbx
  4036e4:	75 ea                	jne    4036d0 <__libc_csu_init+0x40>
  4036e6:	48 83 c4 08          	add    $0x8,%rsp
  4036ea:	5b                   	pop    %rbx
  4036eb:	5d                   	pop    %rbp
  4036ec:	41 5c                	pop    %r12
  4036ee:	41 5d                	pop    %r13
  4036f0:	41 5e                	pop    %r14
  4036f2:	41 5f                	pop    %r15
  4036f4:	c3                   	retq   
  4036f5:	90                   	nop
  4036f6:	66 2e 0f 1f 84 00 00 	nopw   %cs:0x0(%rax,%rax,1)
  4036fd:	00 00 00 

0000000000403700 <__libc_csu_fini>:
  403700:	f3 c3                	repz retq 
  403702:	66 2e 0f 1f 84 00 00 	nopw   %cs:0x0(%rax,%rax,1)
  403709:	00 00 00 
  40370c:	0f 1f 40 00          	nopl   0x0(%rax)

0000000000403710 <__do_global_ctors_aux>:
  403710:	48 8b 05 11 17 20 00 	mov    0x201711(%rip),%rax        # 604e28 <__CTOR_LIST__>
  403717:	48 83 f8 ff          	cmp    $0xffffffffffffffff,%rax
  40371b:	74 28                	je     403745 <__do_global_ctors_aux+0x35>
  40371d:	55                   	push   %rbp
  40371e:	48 89 e5             	mov    %rsp,%rbp
  403721:	53                   	push   %rbx
  403722:	48 8d 1d ff 16 20 00 	lea    0x2016ff(%rip),%rbx        # 604e28 <__CTOR_LIST__>
  403729:	48 83 ec 08          	sub    $0x8,%rsp
  40372d:	0f 1f 00             	nopl   (%rax)
  403730:	48 83 eb 08          	sub    $0x8,%rbx
  403734:	ff d0                	callq  *%rax
  403736:	48 8b 03             	mov    (%rbx),%rax
  403739:	48 83 f8 ff          	cmp    $0xffffffffffffffff,%rax
  40373d:	75 f1                	jne    403730 <__do_global_ctors_aux+0x20>
  40373f:	48 83 c4 08          	add    $0x8,%rsp
  403743:	5b                   	pop    %rbx
  403744:	5d                   	pop    %rbp
  403745:	f3 c3                	repz retq 

Desmontagem da seção .fini:

0000000000403748 <_fini>:
  403748:	48 83 ec 08          	sub    $0x8,%rsp
  40374c:	e8 8f da ff ff       	callq  4011e0 <__do_global_dtors_aux>
  403751:	48 83 c4 08          	add    $0x8,%rsp
  403755:	c3                   	retq   
